EXPORTS
??0?$MaybeStackArray@D$0CI@@icu_62@@AEAA@AEBV01@@Z
??0?$MaybeStackArray@D$0CI@@icu_62@@QEAA@$$QEAV01@@Z
??0?$MaybeStackArray@D$0CI@@icu_62@@QEAA@H@Z
??0?$MaybeStackArray@D$0CI@@icu_62@@QEAA@XZ
??0Appendable@icu_62@@QEAA@AEBV01@@Z
??0Appendable@icu_62@@QEAA@XZ
??0BreakIterator@icu_62@@IEAA@AEBV01@@Z
??0BreakIterator@icu_62@@IEAA@AEBVLocale@1@0@Z
??0BreakIterator@icu_62@@IEAA@XZ
??0ByteSink@icu_62@@QEAA@XZ
??0BytesDictionaryMatcher@icu_62@@QEAA@AEBV01@@Z
??0BytesDictionaryMatcher@icu_62@@QEAA@PEBDHPEAUUDataMemory@@@Z
??0BytesTrie@icu_62@@AEAA@PEAXPEBX@Z
??0BytesTrie@icu_62@@QEAA@AEBV01@@Z
??0BytesTrie@icu_62@@QEAA@PEBX@Z
??0BytesTrieBuilder@icu_62@@QEAA@AEAW4UErrorCode@@@Z
??0CStr@icu_62@@QEAA@AEBVUnicodeString@1@@Z
??0CacheKeyBase@icu_62@@QEAA@AEBV01@@Z
??0CacheKeyBase@icu_62@@QEAA@XZ
??0CanonicalIterator@icu_62@@QEAA@AEBVUnicodeString@1@AEAW4UErrorCode@@@Z
??0Char16Ptr@icu_62@@QEAA@$$T@Z
??0Char16Ptr@icu_62@@QEAA@PEAG@Z
??0Char16Ptr@icu_62@@QEAA@PEA_S@Z
??0Char16Ptr@icu_62@@QEAA@PEA_W@Z
??0CharString@icu_62@@QEAA@$$QEAV01@@Z
??0CharString@icu_62@@QEAA@AEBV01@AEAW4UErrorCode@@@Z
??0CharString@icu_62@@QEAA@PEBDHAEAW4UErrorCode@@@Z
??0CharString@icu_62@@QEAA@VStringPiece@1@AEAW4UErrorCode@@@Z
??0CharString@icu_62@@QEAA@XZ
??0CharacterIterator@icu_62@@IEAA@AEBV01@@Z
??0CharacterIterator@icu_62@@IEAA@H@Z
??0CharacterIterator@icu_62@@IEAA@HH@Z
??0CharacterIterator@icu_62@@IEAA@HHHH@Z
??0CharacterIterator@icu_62@@IEAA@XZ
??0CheckedArrayByteSink@icu_62@@QEAA@PEADH@Z
??0ConstChar16Ptr@icu_62@@QEAA@$$T@Z
??0ConstChar16Ptr@icu_62@@QEAA@PEBG@Z
??0ConstChar16Ptr@icu_62@@QEAA@PEB_S@Z
??0ConstChar16Ptr@icu_62@@QEAA@PEB_W@Z
??0DateInterval@icu_62@@QEAA@AEBV01@@Z
??0DateInterval@icu_62@@QEAA@NN@Z
??0DictionaryMatcher@icu_62@@QEAA@AEBV01@@Z
??0DictionaryMatcher@icu_62@@QEAA@XZ
??0Edits@icu_62@@QEAA@$$QEAV01@@Z
??0Edits@icu_62@@QEAA@AEBV01@@Z
??0Edits@icu_62@@QEAA@XZ
??0ErrorCode@icu_62@@QEAA@AEBV01@@Z
??0ErrorCode@icu_62@@QEAA@XZ
??0EventListener@icu_62@@QEAA@AEBV01@@Z
??0EventListener@icu_62@@QEAA@XZ
??0FilteredBreakIteratorBuilder@icu_62@@IEAA@XZ
??0FilteredBreakIteratorBuilder@icu_62@@QEAA@AEBV01@@Z
??0FilteredNormalizer2@icu_62@@QEAA@AEBV01@@Z
??0FilteredNormalizer2@icu_62@@QEAA@AEBVNormalizer2@1@AEBVUnicodeSet@1@@Z
??0ForwardCharacterIterator@icu_62@@IEAA@AEBV01@@Z
??0ForwardCharacterIterator@icu_62@@IEAA@XZ
??0FullCaseFoldingIterator@icu_62@@QEAA@XZ
??0Hashtable@icu_62@@QEAA@AEAW4UErrorCode@@@Z
??0Hashtable@icu_62@@QEAA@CAEAW4UErrorCode@@@Z
??0Hashtable@icu_62@@QEAA@CHAEAW4UErrorCode@@@Z
??0Hashtable@icu_62@@QEAA@P6ACTUElement@@0@Z1AEAW4UErrorCode@@@Z
??0Hashtable@icu_62@@QEAA@XZ
??0ICULocaleService@icu_62@@QEAA@AEBV01@@Z
??0ICULocaleService@icu_62@@QEAA@AEBVUnicodeString@1@@Z
??0ICULocaleService@icu_62@@QEAA@XZ
??0ICUNotifier@icu_62@@QEAA@AEBV01@@Z
??0ICUNotifier@icu_62@@QEAA@XZ
??0ICUResourceBundleFactory@icu_62@@QEAA@AEBV01@@Z
??0ICUResourceBundleFactory@icu_62@@QEAA@AEBVUnicodeString@1@@Z
??0ICUResourceBundleFactory@icu_62@@QEAA@XZ
??0ICUService@icu_62@@QEAA@AEBV01@@Z
??0ICUService@icu_62@@QEAA@AEBVUnicodeString@1@@Z
??0ICUService@icu_62@@QEAA@XZ
??0ICUServiceFactory@icu_62@@QEAA@AEBV01@@Z
??0ICUServiceFactory@icu_62@@QEAA@XZ
??0ICUServiceKey@icu_62@@QEAA@AEBV01@@Z
??0ICUServiceKey@icu_62@@QEAA@AEBVUnicodeString@1@@Z
??0IDNA@icu_62@@QEAA@AEBV01@@Z
??0IDNA@icu_62@@QEAA@XZ
??0IDNAInfo@icu_62@@QEAA@XZ
??0Iterator@BytesTrie@icu_62@@QEAA@AEBV12@HAEAW4UErrorCode@@@Z
??0Iterator@BytesTrie@icu_62@@QEAA@PEBXHAEAW4UErrorCode@@@Z
??0Iterator@Edits@icu_62@@AEAA@PEBGHCC@Z
??0Iterator@Edits@icu_62@@QEAA@XZ
??0Iterator@UCharsTrie@icu_62@@QEAA@AEBV012@@Z
??0Iterator@UCharsTrie@icu_62@@QEAA@AEBV12@HAEAW4UErrorCode@@@Z
??0Iterator@UCharsTrie@icu_62@@QEAA@VConstChar16Ptr@2@HAEAW4UErrorCode@@@Z
??0ListFormatter@icu_62@@QEAA@AEBUListFormatData@1@AEAW4UErrorCode@@@Z
??0ListFormatter@icu_62@@QEAA@AEBV01@@Z
??0ListFormatter@icu_62@@QEAA@PEBUListFormatInternal@1@@Z
??0Locale@icu_62@@AEAA@W4ELocaleType@01@@Z
??0Locale@icu_62@@QEAA@AEBV01@@Z
??0Locale@icu_62@@QEAA@PEBD000@Z
??0Locale@icu_62@@QEAA@XZ
??0LocaleBased@icu_62@@QEAA@PEAD0@Z
??0LocaleBased@icu_62@@QEAA@PEBD0@Z
??0LocaleDisplayNames@icu_62@@QEAA@AEBV01@@Z
??0LocaleDisplayNames@icu_62@@QEAA@XZ
??0LocaleKey@icu_62@@IEAA@AEBVUnicodeString@1@0PEBV21@H@Z
??0LocaleKey@icu_62@@QEAA@AEBV01@@Z
??0LocaleKeyFactory@icu_62@@IEAA@H@Z
??0LocaleKeyFactory@icu_62@@IEAA@HAEBVUnicodeString@1@@Z
??0LocaleKeyFactory@icu_62@@QEAA@AEBV01@@Z
??0MessagePattern@icu_62@@QEAA@AEAW4UErrorCode@@@Z
??0MessagePattern@icu_62@@QEAA@AEBV01@@Z
??0MessagePattern@icu_62@@QEAA@AEBVUnicodeString@1@PEAUUParseError@@AEAW4UErrorCode@@@Z
??0MessagePattern@icu_62@@QEAA@W4UMessagePatternApostropheMode@@AEAW4UErrorCode@@@Z
??0Mutex@icu_62@@QEAA@PEAUUMutex@@@Z
??0Normalizer2@icu_62@@QEAA@AEBV01@@Z
??0Normalizer2@icu_62@@QEAA@XZ
??0Normalizer2Impl@icu_62@@QEAA@XZ
??0Normalizer@icu_62@@QEAA@AEBV01@@Z
??0Normalizer@icu_62@@QEAA@AEBVCharacterIterator@1@W4UNormalizationMode@@@Z
??0Normalizer@icu_62@@QEAA@AEBVUnicodeString@1@W4UNormalizationMode@@@Z
??0Normalizer@icu_62@@QEAA@VConstChar16Ptr@1@HW4UNormalizationMode@@@Z
??0ParsePosition@icu_62@@QEAA@AEBV01@@Z
??0ParsePosition@icu_62@@QEAA@H@Z
??0ParsePosition@icu_62@@QEAA@XZ
??0ReorderingBuffer@icu_62@@QEAA@AEBVNormalizer2Impl@1@AEAVUnicodeString@1@@Z
??0ReorderingBuffer@icu_62@@QEAA@AEBVNormalizer2Impl@1@AEAVUnicodeString@1@AEAW4UErrorCode@@@Z
??0Replaceable@icu_62@@IEAA@XZ
??0Replaceable@icu_62@@QEAA@AEBV01@@Z
??0ResourceArray@icu_62@@QEAA@PEBGPEBIH@Z
??0ResourceArray@icu_62@@QEAA@XZ
??0ResourceBundle@icu_62@@QEAA@AEAW4UErrorCode@@@Z
??0ResourceBundle@icu_62@@QEAA@AEBV01@@Z
??0ResourceBundle@icu_62@@QEAA@AEBVUnicodeString@1@AEAW4UErrorCode@@@Z
??0ResourceBundle@icu_62@@QEAA@AEBVUnicodeString@1@AEBVLocale@1@AEAW4UErrorCode@@@Z
??0ResourceBundle@icu_62@@QEAA@PEAUUResourceBundle@@AEAW4UErrorCode@@@Z
??0ResourceBundle@icu_62@@QEAA@PEBDAEBVLocale@1@AEAW4UErrorCode@@@Z
??0ResourceSink@icu_62@@QEAA@XZ
??0ResourceTable@icu_62@@QEAA@PEBGPEBH0PEBIH@Z
??0ResourceTable@icu_62@@QEAA@XZ
??0ResourceValue@icu_62@@IEAA@XZ
??0RuleBasedBreakIterator@icu_62@@AEAA@PEAURBBIDataHeader@1@AEAW4UErrorCode@@@Z
??0RuleBasedBreakIterator@icu_62@@QEAA@AEBV01@@Z
??0RuleBasedBreakIterator@icu_62@@QEAA@AEBVUnicodeString@1@AEAUUParseError@@AEAW4UErrorCode@@@Z
??0RuleBasedBreakIterator@icu_62@@QEAA@PEAUUDataMemory@@AEAW4UErrorCode@@@Z
??0RuleBasedBreakIterator@icu_62@@QEAA@PEBEIAEAW4UErrorCode@@@Z
??0RuleBasedBreakIterator@icu_62@@QEAA@XZ
??0ServiceListener@icu_62@@QEAA@AEBV01@@Z
??0ServiceListener@icu_62@@QEAA@XZ
??0SharedObject@icu_62@@QEAA@AEBV01@@Z
??0SharedObject@icu_62@@QEAA@XZ
??0SimpleFactory@icu_62@@QEAA@AEBV01@@Z
??0SimpleFactory@icu_62@@QEAA@PEAVUObject@1@AEBVUnicodeString@1@C@Z
??0SimpleFilteredBreakIteratorBuilder@icu_62@@QEAA@AEAW4UErrorCode@@@Z
??0SimpleFilteredBreakIteratorBuilder@icu_62@@QEAA@AEBVLocale@1@AEAW4UErrorCode@@@Z
??0SimpleFormatter@icu_62@@QEAA@AEBV01@@Z
??0SimpleFormatter@icu_62@@QEAA@AEBVUnicodeString@1@AEAW4UErrorCode@@@Z
??0SimpleFormatter@icu_62@@QEAA@AEBVUnicodeString@1@HHAEAW4UErrorCode@@@Z
??0SimpleFormatter@icu_62@@QEAA@XZ
??0SimpleLocaleKeyFactory@icu_62@@QEAA@AEBV01@@Z
??0SimpleLocaleKeyFactory@icu_62@@QEAA@PEAVUObject@1@AEBVLocale@1@HH@Z
??0SimpleLocaleKeyFactory@icu_62@@QEAA@PEAVUObject@1@AEBVUnicodeString@1@HH@Z
??0StringCharacterIterator@icu_62@@IEAA@XZ
??0StringCharacterIterator@icu_62@@QEAA@AEBV01@@Z
??0StringCharacterIterator@icu_62@@QEAA@AEBVUnicodeString@1@@Z
??0StringCharacterIterator@icu_62@@QEAA@AEBVUnicodeString@1@H@Z
??0StringCharacterIterator@icu_62@@QEAA@AEBVUnicodeString@1@HHH@Z
??0StringEnumeration@icu_62@@IEAA@XZ
??0StringEnumeration@icu_62@@QEAA@AEBV01@@Z
??0StringPair@icu_62@@AEAA@AEBVUnicodeString@1@0@Z
??0StringPair@icu_62@@QEAA@$$QEAV01@@Z
??0StringPair@icu_62@@QEAA@AEBV01@@Z
??0StringPiece@icu_62@@QEAA@AEBV01@H@Z
??0StringPiece@icu_62@@QEAA@AEBV01@HH@Z
??0StringPiece@icu_62@@QEAA@AEBV?$basic_string@DU?$char_traits@D@std@@V?$allocator@D@2@@std@@@Z
??0StringPiece@icu_62@@QEAA@PEBD@Z
??0StringPiece@icu_62@@QEAA@PEBDH@Z
??0StringPiece@icu_62@@QEAA@XZ
??0StringTrieBuilder@icu_62@@IEAA@XZ
??0StringTrieBuilder@icu_62@@QEAA@AEBV01@@Z
??0SymbolTable@icu_62@@QEAA@AEBV01@@Z
??0SymbolTable@icu_62@@QEAA@XZ
??0UCharCharacterIterator@icu_62@@IEAA@XZ
??0UCharCharacterIterator@icu_62@@QEAA@AEBV01@@Z
??0UCharCharacterIterator@icu_62@@QEAA@VConstChar16Ptr@1@H@Z
??0UCharCharacterIterator@icu_62@@QEAA@VConstChar16Ptr@1@HH@Z
??0UCharCharacterIterator@icu_62@@QEAA@VConstChar16Ptr@1@HHHH@Z
??0UCharsDictionaryMatcher@icu_62@@QEAA@AEBV01@@Z
??0UCharsDictionaryMatcher@icu_62@@QEAA@PEB_SPEAUUDataMemory@@@Z
??0UCharsTrie@icu_62@@AEAA@PEA_SPEB_S@Z
??0UCharsTrie@icu_62@@QEAA@AEBV01@@Z
??0UCharsTrie@icu_62@@QEAA@VConstChar16Ptr@1@@Z
??0UCharsTrieBuilder@icu_62@@QEAA@AEAW4UErrorCode@@@Z
??0UObject@icu_62@@QEAA@AEBV01@@Z
??0UObject@icu_62@@QEAA@XZ
??0UStack@icu_62@@QEAA@AEAW4UErrorCode@@@Z
??0UStack@icu_62@@QEAA@HAEAW4UErrorCode@@@Z
??0UStack@icu_62@@QEAA@P6AXPEAX@ZP6ACTUElement@@2@ZAEAW4UErrorCode@@@Z
??0UStack@icu_62@@QEAA@P6AXPEAX@ZP6ACTUElement@@2@ZHAEAW4UErrorCode@@@Z
??0UStringEnumeration@icu_62@@QEAA@AEBV01@@Z
??0UStringEnumeration@icu_62@@QEAA@PEAUUEnumeration@@@Z
??0UStringSet@icu_62@@QEAA@AEAW4UErrorCode@@@Z
??0UVector32@icu_62@@QEAA@AEAW4UErrorCode@@@Z
??0UVector32@icu_62@@QEAA@HAEAW4UErrorCode@@@Z
??0UVector64@icu_62@@QEAA@AEAW4UErrorCode@@@Z
??0UVector64@icu_62@@QEAA@HAEAW4UErrorCode@@@Z
??0UVector@icu_62@@QEAA@AEAW4UErrorCode@@@Z
??0UVector@icu_62@@QEAA@HAEAW4UErrorCode@@@Z
??0UVector@icu_62@@QEAA@P6AXPEAX@ZP6ACTUElement@@2@ZAEAW4UErrorCode@@@Z
??0UVector@icu_62@@QEAA@P6AXPEAX@ZP6ACTUElement@@2@ZHAEAW4UErrorCode@@@Z
??0UnicodeFilter@icu_62@@QEAA@AEBV01@@Z
??0UnicodeFilter@icu_62@@QEAA@XZ
??0UnicodeFunctor@icu_62@@QEAA@AEBV01@@Z
??0UnicodeFunctor@icu_62@@QEAA@XZ
??0UnicodeMatcher@icu_62@@QEAA@AEBV01@@Z
??0UnicodeMatcher@icu_62@@QEAA@XZ
??0UnicodeSet@icu_62@@AEAA@AEBV01@C@Z
??0UnicodeSet@icu_62@@QEAA@AEBV01@@Z
??0UnicodeSet@icu_62@@QEAA@AEBVUnicodeString@1@AEAVParsePosition@1@IPEBVSymbolTable@1@AEAW4UErrorCode@@@Z
??0UnicodeSet@icu_62@@QEAA@AEBVUnicodeString@1@AEAW4UErrorCode@@@Z
??0UnicodeSet@icu_62@@QEAA@AEBVUnicodeString@1@IPEBVSymbolTable@1@AEAW4UErrorCode@@@Z
??0UnicodeSet@icu_62@@QEAA@HH@Z
??0UnicodeSet@icu_62@@QEAA@QEBGHW4ESerialization@01@AEAW4UErrorCode@@@Z
??0UnicodeSet@icu_62@@QEAA@XZ
??0UnicodeSetIterator@icu_62@@QEAA@AEBVUnicodeSet@1@@Z
??0UnicodeSetIterator@icu_62@@QEAA@XZ
??0UnicodeString@icu_62@@QEAA@$$QEAV01@@Z
??0UnicodeString@icu_62@@QEAA@$$T@Z
??0UnicodeString@icu_62@@QEAA@$$TH@Z
??0UnicodeString@icu_62@@QEAA@$$THH@Z
??0UnicodeString@icu_62@@QEAA@AEBV01@@Z
??0UnicodeString@icu_62@@QEAA@AEBV01@H@Z
??0UnicodeString@icu_62@@QEAA@AEBV01@HH@Z
??0UnicodeString@icu_62@@QEAA@CVConstChar16Ptr@1@H@Z
??0UnicodeString@icu_62@@QEAA@H@Z
??0UnicodeString@icu_62@@QEAA@HHH@Z
??0UnicodeString@icu_62@@QEAA@PEAGHH@Z
??0UnicodeString@icu_62@@QEAA@PEA_SHH@Z
??0UnicodeString@icu_62@@QEAA@PEA_WHH@Z
??0UnicodeString@icu_62@@QEAA@PEBD0@Z
??0UnicodeString@icu_62@@QEAA@PEBD@Z
??0UnicodeString@icu_62@@QEAA@PEBDH0@Z
??0UnicodeString@icu_62@@QEAA@PEBDH@Z
??0UnicodeString@icu_62@@QEAA@PEBDHPEAUUConverter@@AEAW4UErrorCode@@@Z
??0UnicodeString@icu_62@@QEAA@PEBDHW4EInvariant@01@@Z
??0UnicodeString@icu_62@@QEAA@PEBG@Z
??0UnicodeString@icu_62@@QEAA@PEBGH@Z
??0UnicodeString@icu_62@@QEAA@PEB_S@Z
??0UnicodeString@icu_62@@QEAA@PEB_SH@Z
??0UnicodeString@icu_62@@QEAA@PEB_W@Z
??0UnicodeString@icu_62@@QEAA@PEB_WH@Z
??0UnicodeString@icu_62@@QEAA@XZ
??0UnicodeString@icu_62@@QEAA@_S@Z
??0UnicodeStringAppendable@icu_62@@QEAA@AEAVUnicodeString@1@@Z
??0UnicodeStringAppendable@icu_62@@QEAA@AEBV01@@Z
??0UnifiedCache@icu_62@@QEAA@AEAW4UErrorCode@@@Z
??0UnifiedCacheBase@icu_62@@QEAA@XZ
??1?$MaybeStackArray@D$0CI@@icu_62@@QEAA@XZ
??1Appendable@icu_62@@UEAA@XZ
??1BreakIterator@icu_62@@UEAA@XZ
??1ByteSink@icu_62@@UEAA@XZ
??1BytesDictionaryMatcher@icu_62@@UEAA@XZ
??1BytesTrie@icu_62@@QEAA@XZ
??1BytesTrieBuilder@icu_62@@UEAA@XZ
??1CStr@icu_62@@QEAA@XZ
??1CacheKeyBase@icu_62@@UEAA@XZ
??1CanonicalIterator@icu_62@@UEAA@XZ
??1Char16Ptr@icu_62@@QEAA@XZ
??1CharString@icu_62@@QEAA@XZ
??1CharacterIterator@icu_62@@UEAA@XZ
??1CheckedArrayByteSink@icu_62@@UEAA@XZ
??1ConstChar16Ptr@icu_62@@QEAA@XZ
??1DateInterval@icu_62@@UEAA@XZ
??1DictionaryMatcher@icu_62@@UEAA@XZ
??1Edits@icu_62@@QEAA@XZ
??1ErrorCode@icu_62@@UEAA@XZ
??1EventListener@icu_62@@UEAA@XZ
??1FilteredBreakIteratorBuilder@icu_62@@UEAA@XZ
??1FilteredNormalizer2@icu_62@@UEAA@XZ
??1ForwardCharacterIterator@icu_62@@UEAA@XZ
??1Hashtable@icu_62@@QEAA@XZ
??1ICULocaleService@icu_62@@UEAA@XZ
??1ICUNotifier@icu_62@@UEAA@XZ
??1ICUResourceBundleFactory@icu_62@@UEAA@XZ
??1ICUService@icu_62@@UEAA@XZ
??1ICUServiceFactory@icu_62@@UEAA@XZ
??1ICUServiceKey@icu_62@@UEAA@XZ
??1IDNA@icu_62@@UEAA@XZ
??1Iterator@BytesTrie@icu_62@@QEAA@XZ
??1Iterator@UCharsTrie@icu_62@@QEAA@XZ
??1ListFormatter@icu_62@@UEAA@XZ
??1Locale@icu_62@@UEAA@XZ
??1LocaleDisplayNames@icu_62@@UEAA@XZ
??1LocaleKey@icu_62@@UEAA@XZ
??1LocaleKeyFactory@icu_62@@UEAA@XZ
??1MessagePattern@icu_62@@UEAA@XZ
??1Mutex@icu_62@@QEAA@XZ
??1Normalizer2@icu_62@@UEAA@XZ
??1Normalizer2Impl@icu_62@@UEAA@XZ
??1Normalizer@icu_62@@UEAA@XZ
??1ParsePosition@icu_62@@UEAA@XZ
??1ReorderingBuffer@icu_62@@QEAA@XZ
??1Replaceable@icu_62@@UEAA@XZ
??1ResourceBundle@icu_62@@UEAA@XZ
??1ResourceSink@icu_62@@UEAA@XZ
??1ResourceValue@icu_62@@UEAA@XZ
??1RuleBasedBreakIterator@icu_62@@UEAA@XZ
??1ServiceListener@icu_62@@UEAA@XZ
??1SharedObject@icu_62@@UEAA@XZ
??1SimpleFactory@icu_62@@UEAA@XZ
??1SimpleFilteredBreakIteratorBuilder@icu_62@@UEAA@XZ
??1SimpleFormatter@icu_62@@QEAA@XZ
??1SimpleLocaleKeyFactory@icu_62@@UEAA@XZ
??1StringCharacterIterator@icu_62@@UEAA@XZ
??1StringEnumeration@icu_62@@UEAA@XZ
??1StringPair@icu_62@@QEAA@XZ
??1StringTrieBuilder@icu_62@@MEAA@XZ
??1SymbolTable@icu_62@@UEAA@XZ
??1UCharCharacterIterator@icu_62@@UEAA@XZ
??1UCharsDictionaryMatcher@icu_62@@UEAA@XZ
??1UCharsTrie@icu_62@@QEAA@XZ
??1UCharsTrieBuilder@icu_62@@UEAA@XZ
??1UObject@icu_62@@UEAA@XZ
??1UStack@icu_62@@UEAA@XZ
??1UStringEnumeration@icu_62@@UEAA@XZ
??1UStringSet@icu_62@@UEAA@XZ
??1UVector32@icu_62@@UEAA@XZ
??1UVector64@icu_62@@UEAA@XZ
??1UVector@icu_62@@UEAA@XZ
??1UnicodeFilter@icu_62@@UEAA@XZ
??1UnicodeFunctor@icu_62@@UEAA@XZ
??1UnicodeMatcher@icu_62@@UEAA@XZ
??1UnicodeSet@icu_62@@UEAA@XZ
??1UnicodeSetIterator@icu_62@@UEAA@XZ
??1UnicodeString@icu_62@@UEAA@XZ
??1UnicodeStringAppendable@icu_62@@UEAA@XZ
??1UnifiedCache@icu_62@@UEAA@XZ
??1UnifiedCacheBase@icu_62@@UEAA@XZ
??2UMemory@icu_62@@SAPEAX_K@Z
??2UMemory@icu_62@@SAPEAX_KPEAX@Z
??2UMemory@icu_62@@SAPEAX_KPEBDH@Z
??3UMemory@icu_62@@SAXPEAX0@Z
??3UMemory@icu_62@@SAXPEAX@Z
??3UMemory@icu_62@@SAXPEAXPEBDH@Z
??4?$MaybeStackArray@D$0CI@@icu_62@@AEAAXAEBV01@@Z
??4?$MaybeStackArray@D$0CI@@icu_62@@QEAAAEAV01@$$QEAV01@@Z
??4Appendable@icu_62@@QEAAAEAV01@AEBV01@@Z
??4BreakIterator@icu_62@@IEAAAEAV01@AEBV01@@Z
??4ByteSinkUtil@icu_62@@QEAAAEAV01@$$QEAV01@@Z
??4ByteSinkUtil@icu_62@@QEAAAEAV01@AEBV01@@Z
??4BytesDictionaryMatcher@icu_62@@QEAAAEAV01@AEBV01@@Z
??4CacheKeyBase@icu_62@@QEAAAEAV01@AEBV01@@Z
??4Char16Ptr@icu_62@@QEAAAEAV01@AEBV01@@Z
??4CharString@icu_62@@QEAAAEAV01@$$QEAV01@@Z
??4CharacterIterator@icu_62@@IEAAAEAV01@AEBV01@@Z
??4ConstChar16Ptr@icu_62@@QEAAAEAV01@AEBV01@@Z
??4DateInterval@icu_62@@QEAAAEAV01@AEBV01@@Z
??4DictionaryData@icu_62@@QEAAAEAV01@$$QEAV01@@Z
??4DictionaryData@icu_62@@QEAAAEAV01@AEBV01@@Z
??4DictionaryMatcher@icu_62@@QEAAAEAV01@AEBV01@@Z
??4Edits@icu_62@@QEAAAEAV01@$$QEAV01@@Z
??4Edits@icu_62@@QEAAAEAV01@AEBV01@@Z
??4ErrorCode@icu_62@@QEAAAEAV01@AEBV01@@Z
??4EventListener@icu_62@@QEAAAEAV01@AEBV01@@Z
??4FilteredBreakIteratorBuilder@icu_62@@QEAAAEAV01@AEBV01@@Z
??4ForwardCharacterIterator@icu_62@@IEAAAEAV01@AEBV01@@Z
??4Hangul@icu_62@@QEAAAEAV01@$$QEAV01@@Z
??4Hangul@icu_62@@QEAAAEAV01@AEBV01@@Z
??4ICUNotifier@icu_62@@QEAAAEAV01@AEBV01@@Z
??4ICUServiceFactory@icu_62@@QEAAAEAV01@AEBV01@@Z
??4ICU_Utility@icu_62@@QEAAAEAV01@$$QEAV01@@Z
??4ICU_Utility@icu_62@@QEAAAEAV01@AEBV01@@Z
??4IDNA@icu_62@@QEAAAEAV01@AEBV01@@Z
??4Iterator@BytesTrie@icu_62@@QEAAAEAV012@AEBV012@@Z
??4Iterator@Edits@icu_62@@QEAAAEAU012@AEBU012@@Z
??4Iterator@UCharsTrie@icu_62@@QEAAAEAV012@AEBV012@@Z
??4ListFormatter@icu_62@@QEAAAEAV01@AEBV01@@Z
??4Locale@icu_62@@QEAAAEAV01@AEBV01@@Z
??4LocaleBased@icu_62@@QEAAAEAV01@$$QEAV01@@Z
??4LocaleBased@icu_62@@QEAAAEAV01@AEBV01@@Z
??4LocaleDisplayNames@icu_62@@QEAAAEAV01@AEBV01@@Z
??4LocaleUtility@icu_62@@QEAAAEAV01@$$QEAV01@@Z
??4LocaleUtility@icu_62@@QEAAAEAV01@AEBV01@@Z
??4MessageImpl@icu_62@@QEAAAEAV01@$$QEAV01@@Z
??4MessageImpl@icu_62@@QEAAAEAV01@AEBV01@@Z
??4MessagePattern@icu_62@@QEAAAEAV01@AEBV01@@Z
??4Normalizer2@icu_62@@QEAAAEAV01@AEBV01@@Z
??4Normalizer2Factory@icu_62@@QEAAAEAV01@$$QEAV01@@Z
??4Normalizer2Factory@icu_62@@QEAAAEAV01@AEBV01@@Z
??4ParsePosition@icu_62@@QEAAAEAV01@AEBV01@@Z
??4PatternProps@icu_62@@QEAAAEAV01@$$QEAV01@@Z
??4PatternProps@icu_62@@QEAAAEAV01@AEBV01@@Z
??4PluralMapBase@icu_62@@QEAAAEAV01@$$QEAV01@@Z
??4PluralMapBase@icu_62@@QEAAAEAV01@AEBV01@@Z
??4Replaceable@icu_62@@QEAAAEAV01@AEBV01@@Z
??4ResourceArray@icu_62@@QEAAAEAV01@$$QEAV01@@Z
??4ResourceArray@icu_62@@QEAAAEAV01@AEBV01@@Z
??4ResourceBundle@icu_62@@QEAAAEAV01@AEBV01@@Z
??4ResourceTable@icu_62@@QEAAAEAV01@$$QEAV01@@Z
??4ResourceTable@icu_62@@QEAAAEAV01@AEBV01@@Z
??4RuleBasedBreakIterator@icu_62@@QEAAAEAV01@AEBV01@@Z
??4ServiceListener@icu_62@@QEAAAEAV01@AEBV01@@Z
??4SimpleFormatter@icu_62@@QEAAAEAV01@AEBV01@@Z
??4StringCharacterIterator@icu_62@@QEAAAEAV01@AEBV01@@Z
??4StringEnumeration@icu_62@@QEAAAEAV01@AEBV01@@Z
??4StringPiece@icu_62@@QEAAAEAV01@$$QEAV01@@Z
??4StringPiece@icu_62@@QEAAAEAV01@AEBV01@@Z
??4StringTrieBuilder@icu_62@@QEAAAEAV01@AEBV01@@Z
??4SymbolTable@icu_62@@QEAAAEAV01@AEBV01@@Z
??4UCharCharacterIterator@icu_62@@QEAAAEAV01@AEBV01@@Z
??4UCharsDictionaryMatcher@icu_62@@QEAAAEAV01@AEBV01@@Z
??4UMemory@icu_62@@QEAAAEAV01@$$QEAV01@@Z
??4UMemory@icu_62@@QEAAAEAV01@AEBV01@@Z
??4UObject@icu_62@@QEAAAEAV01@AEBV01@@Z
??4UStringEnumeration@icu_62@@QEAAAEAV01@AEBV01@@Z
??4UnicodeFilter@icu_62@@QEAAAEAV01@AEBV01@@Z
??4UnicodeFunctor@icu_62@@QEAAAEAV01@AEBV01@@Z
??4UnicodeMatcher@icu_62@@QEAAAEAV01@AEBV01@@Z
??4UnicodeSet@icu_62@@QEAAAEAV01@AEBV01@@Z
??4UnicodeString@icu_62@@QEAAAEAV01@$$QEAV01@@Z
??4UnicodeString@icu_62@@QEAAAEAV01@AEBV01@@Z
??4UnicodeString@icu_62@@QEAAAEAV01@H@Z
??4UnicodeString@icu_62@@QEAAAEAV01@_S@Z
??8?$MaybeStackArray@D$0CI@@icu_62@@AEAA_NAEBV01@@Z
??8DateInterval@icu_62@@UEBACAEBV01@@Z
??8Locale@icu_62@@QEBACAEBV01@@Z
??8MessagePattern@icu_62@@QEBACAEBV01@@Z
??8Normalizer@icu_62@@QEBACAEBV01@@Z
??8ParsePosition@icu_62@@QEBACAEBV01@@Z
??8RuleBasedBreakIterator@icu_62@@UEBACAEBVBreakIterator@1@@Z
??8StringCharacterIterator@icu_62@@UEBACAEBVForwardCharacterIterator@1@@Z
??8StringEnumeration@icu_62@@UEBACAEBV01@@Z
??8UCharCharacterIterator@icu_62@@UEBACAEBVForwardCharacterIterator@1@@Z
??8UVector32@icu_62@@QEAACAEBV01@@Z
??8UVector64@icu_62@@QEAACAEBV01@@Z
??8UVector@icu_62@@QEAACAEBV01@@Z
??8UnicodeSet@icu_62@@UEBACAEBV01@@Z
??8UnicodeString@icu_62@@QEBACAEBV01@@Z
??8icu_62@@YACAEBVStringPiece@0@0@Z
??9?$MaybeStackArray@D$0CI@@icu_62@@AEAA_NAEBV01@@Z
??9BreakIterator@icu_62@@QEBACAEBV01@@Z
??9CacheKeyBase@icu_62@@QEBACAEBV01@@Z
??9DateInterval@icu_62@@QEBACAEBV01@@Z
??9ForwardCharacterIterator@icu_62@@QEBACAEBV01@@Z
??9Locale@icu_62@@QEBACAEBV01@@Z
??9MessagePattern@icu_62@@QEBACAEBV01@@Z
??9Normalizer@icu_62@@QEBACAEBV01@@Z
??9ParsePosition@icu_62@@QEBACAEBV01@@Z
??9RuleBasedBreakIterator@icu_62@@QEBACAEBVBreakIterator@1@@Z
??9StringEnumeration@icu_62@@UEBACAEBV01@@Z
??9UVector32@icu_62@@QEAACAEBV01@@Z
??9UVector64@icu_62@@QEAACAEBV01@@Z
??9UVector@icu_62@@QEAACAEBV01@@Z
??9UnicodeSet@icu_62@@QEBACAEBV01@@Z
??9UnicodeString@icu_62@@QEBACAEBV01@@Z
??A?$MaybeStackArray@D$0CI@@icu_62@@QEAAAEAD_J@Z
??A?$MaybeStackArray@D$0CI@@icu_62@@QEBAAEBD_J@Z
??ACharString@icu_62@@QEBADH@Z
??AUVector@icu_62@@QEBAPEAXH@Z
??AUnicodeString@icu_62@@QEBA_SH@Z
??BChar16Ptr@icu_62@@QEBAPEA_SXZ
??BConstChar16Ptr@icu_62@@QEBAPEB_SXZ
??BErrorCode@icu_62@@QEAAAEAW4UErrorCode@@XZ
??BErrorCode@icu_62@@QEAAPEAW4UErrorCode@@XZ
??Hicu_62@@YA?AVUnicodeString@0@AEBV10@0@Z
??MUnicodeString@icu_62@@QEBACAEBV01@@Z
??NUnicodeString@icu_62@@QEBACAEBV01@@Z
??OUnicodeString@icu_62@@QEBACAEBV01@@Z
??PUnicodeString@icu_62@@QEBACAEBV01@@Z
??RCStr@icu_62@@QEBAPEBDXZ
??YUnicodeString@icu_62@@QEAAAEAV01@AEBV01@@Z
??YUnicodeString@icu_62@@QEAAAEAV01@H@Z
??YUnicodeString@icu_62@@QEAAAEAV01@_S@Z
??_7Appendable@icu_62@@6B@
??_7BreakIterator@icu_62@@6B@
??_7ByteSink@icu_62@@6B@
??_7BytesDictionaryMatcher@icu_62@@6B@
??_7BytesTrieBuilder@icu_62@@6B@
??_7CacheKeyBase@icu_62@@6B@
??_7CanonicalIterator@icu_62@@6B@
??_7CharacterIterator@icu_62@@6B@
??_7CheckedArrayByteSink@icu_62@@6B@
??_7DateInterval@icu_62@@6B@
??_7DictionaryMatcher@icu_62@@6B@
??_7ErrorCode@icu_62@@6B@
??_7EventListener@icu_62@@6B@
??_7FilteredBreakIteratorBuilder@icu_62@@6B@
??_7FilteredNormalizer2@icu_62@@6B@
??_7ForwardCharacterIterator@icu_62@@6B@
??_7ICULocaleService@icu_62@@6B@
??_7ICUNotifier@icu_62@@6B@
??_7ICUResourceBundleFactory@icu_62@@6B@
??_7ICUService@icu_62@@6B@
??_7ICUServiceFactory@icu_62@@6B@
??_7ICUServiceKey@icu_62@@6B@
??_7IDNA@icu_62@@6B@
??_7ListFormatter@icu_62@@6B@
??_7Locale@icu_62@@6B@
??_7LocaleDisplayNames@icu_62@@6B@
??_7LocaleKey@icu_62@@6B@
??_7LocaleKeyFactory@icu_62@@6B@
??_7MessagePattern@icu_62@@6B@
??_7Normalizer2@icu_62@@6B@
??_7Normalizer2Impl@icu_62@@6B@
??_7Normalizer@icu_62@@6B@
??_7ParsePosition@icu_62@@6B@
??_7Replaceable@icu_62@@6B@
??_7ResourceBundle@icu_62@@6B@
??_7ResourceSink@icu_62@@6B@
??_7ResourceValue@icu_62@@6B@
??_7RuleBasedBreakIterator@icu_62@@6B@
??_7ServiceListener@icu_62@@6B@
??_7SharedObject@icu_62@@6B@
??_7SimpleFactory@icu_62@@6B@
??_7SimpleFilteredBreakIteratorBuilder@icu_62@@6B@
??_7SimpleLocaleKeyFactory@icu_62@@6B@
??_7StringCharacterIterator@icu_62@@6B@
??_7StringEnumeration@icu_62@@6B@
??_7StringTrieBuilder@icu_62@@6B@
??_7SymbolTable@icu_62@@6B@
??_7UCharCharacterIterator@icu_62@@6B@
??_7UCharsDictionaryMatcher@icu_62@@6B@
??_7UCharsTrieBuilder@icu_62@@6B@
??_7UObject@icu_62@@6B@
??_7UStack@icu_62@@6B@
??_7UStringEnumeration@icu_62@@6B@
??_7UStringSet@icu_62@@6B@
??_7UVector32@icu_62@@6B@
??_7UVector64@icu_62@@6B@
??_7UVector@icu_62@@6B@
??_7UnicodeFilter@icu_62@@6BUnicodeFunctor@1@@
??_7UnicodeFilter@icu_62@@6BUnicodeMatcher@1@@
??_7UnicodeFunctor@icu_62@@6B@
??_7UnicodeMatcher@icu_62@@6B@
??_7UnicodeSet@icu_62@@6BUnicodeFunctor@1@@
??_7UnicodeSet@icu_62@@6BUnicodeMatcher@1@@
??_7UnicodeSetIterator@icu_62@@6B@
??_7UnicodeString@icu_62@@6B@
??_7UnicodeStringAppendable@icu_62@@6B@
??_7UnifiedCache@icu_62@@6B@
??_7UnifiedCacheBase@icu_62@@6B@
??_FMutex@icu_62@@QEAAXXZ
??_UUMemory@icu_62@@SAPEAX_K@Z
??_VUMemory@icu_62@@SAXPEAX@Z
?Append@CheckedArrayByteSink@icu_62@@UEAAXPEBDH@Z
?DEVICE_CPU@tensorflow@@3QEBDEB
?DEVICE_GPU@tensorflow@@3QEBDEB
?DEVICE_SYCL@tensorflow@@3QEBDEB
?Flush@ByteSink@icu_62@@UEAAXXZ
?GetAppendBuffer@ByteSink@icu_62@@UEAAPEADHHPEADHPEAH@Z
?GetAppendBuffer@CheckedArrayByteSink@icu_62@@UEAAPEADHHPEADHPEAH@Z
?NumberOfBytesAppended@CheckedArrayByteSink@icu_62@@QEBAHXZ
?NumberOfBytesWritten@CheckedArrayByteSink@icu_62@@QEBAHXZ
?Overflowed@CheckedArrayByteSink@icu_62@@QEBACXZ
?PREFIX_DELIMITER@ICUServiceKey@icu_62@@1_SB
?Reset@CheckedArrayByteSink@icu_62@@UEAAAEAV12@XZ
?STACK_CAPACITY@Edits@icu_62@@0HB
?TRANSFORM_NONE@DictionaryData@icu_62@@2HB
?TRANSFORM_OFFSET_MASK@DictionaryData@icu_62@@2HB
?TRANSFORM_TYPE_MASK@DictionaryData@icu_62@@2HB
?TRANSFORM_TYPE_OFFSET@DictionaryData@icu_62@@2HB
?TRIE_HAS_VALUES@DictionaryData@icu_62@@2HB
?TRIE_TYPE_BYTES@DictionaryData@icu_62@@2HB
?TRIE_TYPE_MASK@DictionaryData@icu_62@@2HB
?TRIE_TYPE_UCHARS@DictionaryData@icu_62@@2HB
?ThenBlasGemm@Stream@stream_executor@@QEAAAEAV12@W4Transpose@blas@2@0_K11MAEBV?$DeviceMemory@M@2@H2HMPEAV52@H@Z
?ThenBlasGemm@Stream@stream_executor@@QEAAAEAV12@W4Transpose@blas@2@0_K11MAEBV?$DeviceMemory@Uhalf@Eigen@@@2@H2HMPEAV52@H@Z
?ThenBlasGemm@Stream@stream_executor@@QEAAAEAV12@W4Transpose@blas@2@0_K11NAEBV?$DeviceMemory@N@2@H2HNPEAV52@H@Z
?ThenBlasGemm@Stream@stream_executor@@QEAAAEAV12@W4Transpose@blas@2@0_K11V?$complex@M@std@@AEBV?$DeviceMemory@V?$complex@M@std@@@2@H3H2PEAV72@H@Z
?ThenBlasGemm@Stream@stream_executor@@QEAAAEAV12@W4Transpose@blas@2@0_K11V?$complex@N@std@@AEBV?$DeviceMemory@V?$complex@N@std@@@2@H3H2PEAV72@H@Z
?_add@UnicodeSet@icu_62@@AEAAXAEBVUnicodeString@2@@Z
?_appendToPat@UnicodeSet@icu_62@@CAXAEAVUnicodeString@2@AEBV32@C@Z
?_appendToPat@UnicodeSet@icu_62@@CAXAEAVUnicodeString@2@HC@Z
?_computeCountOfItemsToEvict@UnifiedCache@icu_62@@AEBAHXZ
?_fetch@UnifiedCache@icu_62@@AEBAXPEBUUHashElement@@AEAPEBVSharedObject@2@AEAW4UErrorCode@@@Z
?_flush@UnifiedCache@icu_62@@AEBACC@Z
?_generatePattern@UnicodeSet@icu_62@@AEBAAEAVUnicodeString@2@AEAV32@C@Z
?_get@UnifiedCache@icu_62@@AEBAXAEBVCacheKeyBase@2@AEAPEBVSharedObject@2@PEBXAEAW4UErrorCode@@@Z
?_inProgress@UnifiedCache@icu_62@@AEBACPEBUUHashElement@@@Z
?_inProgress@UnifiedCache@icu_62@@AEBACPEBVSharedObject@2@W4UErrorCode@@@Z
?_init@UVector32@icu_62@@AEAAXHAEAW4UErrorCode@@@Z
?_init@UVector64@icu_62@@AEAAXHAEAW4UErrorCode@@@Z
?_init@UVector@icu_62@@AEAAXHAEAW4UErrorCode@@@Z
?_isEvictable@UnifiedCache@icu_62@@AEBACPEBUUHashElement@@@Z
?_nextElement@UnifiedCache@icu_62@@AEBAPEBUUHashElement@@XZ
?_poll@UnifiedCache@icu_62@@AEBACAEBVCacheKeyBase@2@AEAPEBVSharedObject@2@AEAW4UErrorCode@@@Z
?_put@UnifiedCache@icu_62@@AEBAXPEBUUHashElement@@PEBVSharedObject@2@W4UErrorCode@@@Z
?_putIfAbsentAndGet@UnifiedCache@icu_62@@AEBAXAEBVCacheKeyBase@2@AEAPEBVSharedObject@2@AEAW4UErrorCode@@@Z
?_putNew@UnifiedCache@icu_62@@AEBAXAEBVCacheKeyBase@2@PEBVSharedObject@2@W4UErrorCode@@AEAW45@@Z
?_registerMaster@UnifiedCache@icu_62@@AEBAXPEBVCacheKeyBase@2@PEBVSharedObject@2@@Z
?_runEvictionSlice@UnifiedCache@icu_62@@AEBAXXZ
?_toPattern@UnicodeSet@icu_62@@AEBAAEAVUnicodeString@2@AEAV32@C@Z
?acceptsListener@ICUService@icu_62@@MEBACAEBVEventListener@2@@Z
?add@BytesTrieBuilder@icu_62@@QEAAAEAV12@VStringPiece@2@HAEAW4UErrorCode@@@Z
?add@UCharsTrieBuilder@icu_62@@QEAAAEAV12@AEBVUnicodeString@2@HAEAW4UErrorCode@@@Z
?add@UStringSet@icu_62@@QEAACAEBVUnicodeString@2@AEAW4UErrorCode@@@Z
?add@UnicodeSet@icu_62@@AEAAXPEBHHC@Z
?add@UnicodeSet@icu_62@@QEAAAEAV12@AEBVUnicodeString@2@@Z
?add@UnicodeSet@icu_62@@QEAAAEAV12@H@Z
?add@UnicodeSet@icu_62@@UEAAAEAV12@HH@Z
?addAll@UnicodeSet@icu_62@@QEAAAEAV12@AEBVUnicodeString@2@@Z
?addAll@UnicodeSet@icu_62@@UEAAAEAV12@AEBV12@@Z
?addArgDoublePart@MessagePattern@icu_62@@AEAAXNHHAEAW4UErrorCode@@@Z
?addCanonIterPropertyStarts@Normalizer2Impl@icu_62@@QEBAXPEBUUSetAdder@@AEAW4UErrorCode@@@Z
?addComposites@Normalizer2Impl@icu_62@@AEBAXPEBGAEAVUnicodeSet@2@@Z
?addElement@UVector32@icu_62@@QEAAXHAEAW4UErrorCode@@@Z
?addElement@UVector64@icu_62@@QEAAX_JAEAW4UErrorCode@@@Z
?addElement@UVector@icu_62@@QEAAXHAEAW4UErrorCode@@@Z
?addElement@UVector@icu_62@@QEAAXPEAXAEAW4UErrorCode@@@Z
?addHardRef@UnifiedCache@icu_62@@AEBAHPEBVSharedObject@2@@Z
?addLcccChars@Normalizer2Impl@icu_62@@QEBAXAEAVUnicodeSet@2@@Z
?addLimitPart@MessagePattern@icu_62@@AEAAXHW4UMessagePatternPartType@@HHHAEAW4UErrorCode@@@Z
?addListener@ICUNotifier@icu_62@@UEAAXPEBVEventListener@2@AEAW4UErrorCode@@@Z
?addMatchSetTo@UnicodeSet@icu_62@@UEBAXAEAV12@@Z
?addPart@MessagePattern@icu_62@@AEAAXW4UMessagePatternPartType@@HHHAEAW4UErrorCode@@@Z
?addPropertyStarts@Normalizer2Impl@icu_62@@QEBAXPEBUUSetAdder@@AEAW4UErrorCode@@@Z
?addRef@SharedObject@icu_62@@QEBAXXZ
?addRef@UnicodeString@icu_62@@AEAAXXZ
?addReplace@Edits@icu_62@@QEAAXHH@Z
?addUnchanged@Edits@icu_62@@QEAAXH@Z
?adopt@UStringSet@icu_62@@QEAACPEAVUnicodeString@2@AEAW4UErrorCode@@@Z
?adoptText@RuleBasedBreakIterator@icu_62@@UEAAXPEAVCharacterIterator@2@@Z
?aliasInstead@?$MaybeStackArray@D$0CI@@icu_62@@QEAAXPEADH@Z
?allocate@UnicodeString@icu_62@@AEAACH@Z
?allocateStrings@UnicodeSet@icu_62@@AEAACAEAW4UErrorCode@@@Z
?append@BytesTrie@icu_62@@CAXAEAVByteSink@2@H@Z
?append@CharString@icu_62@@QEAAAEAV12@AEBV12@AEAW4UErrorCode@@@Z
?append@CharString@icu_62@@QEAAAEAV12@DAEAW4UErrorCode@@@Z
?append@CharString@icu_62@@QEAAAEAV12@PEBDHAEAW4UErrorCode@@@Z
?append@CharString@icu_62@@QEAAAEAV12@VStringPiece@2@AEAW4UErrorCode@@@Z
?append@Edits@icu_62@@AEAAXH@Z
?append@FilteredNormalizer2@icu_62@@UEBAAEAVUnicodeString@2@AEAV32@AEBV32@AEAW4UErrorCode@@@Z
?append@ReorderingBuffer@icu_62@@QEAACHEAEAW4UErrorCode@@@Z
?append@ReorderingBuffer@icu_62@@QEAACPEB_SHEEAEAW4UErrorCode@@@Z
?append@UnicodeString@icu_62@@QEAAAEAV12@AEBV12@@Z
?append@UnicodeString@icu_62@@QEAAAEAV12@AEBV12@HH@Z
?append@UnicodeString@icu_62@@QEAAAEAV12@H@Z
?append@UnicodeString@icu_62@@QEAAAEAV12@PEB_SHH@Z
?append@UnicodeString@icu_62@@QEAAAEAV12@VConstChar16Ptr@2@H@Z
?append@UnicodeString@icu_62@@QEAAAEAV12@_S@Z
?appendBMP@ReorderingBuffer@icu_62@@QEAAC_SEAEAW4UErrorCode@@@Z
?appendChange@ByteSinkUtil@icu_62@@SACHPEB_SHAEAVByteSink@2@PEAVEdits@2@AEAW4UErrorCode@@@Z
?appendChange@ByteSinkUtil@icu_62@@SACPEBE0PEB_SHAEAVByteSink@2@PEAVEdits@2@AEAW4UErrorCode@@@Z
?appendCodePoint@Appendable@icu_62@@UEAACH@Z
?appendCodePoint@ByteSinkUtil@icu_62@@SAXHHAEAVByteSink@2@PEAVEdits@2@@Z
?appendCodePoint@ByteSinkUtil@icu_62@@SAXPEBE0HAEAVByteSink@2@PEAVEdits@2@@Z
?appendCodePoint@UnicodeStringAppendable@icu_62@@UEAACH@Z
?appendCodeUnit@UnicodeStringAppendable@icu_62@@UEAAC_S@Z
?appendInvariantChars@CharString@icu_62@@QEAAAEAV12@AEBVUnicodeString@2@AEAW4UErrorCode@@@Z
?appendNonEmptyUnchanged@ByteSinkUtil@icu_62@@CAXPEBEHAEAVByteSink@2@IPEAVEdits@2@@Z
?appendNumber@ICU_Utility@icu_62@@SAAEAVUnicodeString@2@AEAV32@HHH@Z
?appendPathPart@CharString@icu_62@@QEAAAEAV12@VStringPiece@2@AEAW4UErrorCode@@@Z
?appendReducedApostrophes@MessageImpl@icu_62@@SAXAEBVUnicodeString@2@HHAEAV32@@Z
?appendString@Appendable@icu_62@@UEAACPEB_SH@Z
?appendString@UnicodeStringAppendable@icu_62@@UEAACPEB_SH@Z
?appendSubMessageWithoutSkipSyntax@MessageImpl@icu_62@@SAAEAVUnicodeString@2@AEBVMessagePattern@2@HAEAV32@@Z
?appendSupplementary@ReorderingBuffer@icu_62@@AEAACHEAEAW4UErrorCode@@@Z
?appendToRule@ICU_Utility@icu_62@@SAXAEAVUnicodeString@2@AEBV32@CC0@Z
?appendToRule@ICU_Utility@icu_62@@SAXAEAVUnicodeString@2@HCC0@Z
?appendToRule@ICU_Utility@icu_62@@SAXAEAVUnicodeString@2@PEBVUnicodeMatcher@2@C0@Z
?appendTwoBytes@ByteSinkUtil@icu_62@@SAXHAEAVByteSink@2@@Z
?appendUnchanged@ByteSinkUtil@icu_62@@SACPEBE0AEAVByteSink@2@IPEAVEdits@2@AEAW4UErrorCode@@@Z
?appendUnchanged@ByteSinkUtil@icu_62@@SACPEBEHAEAVByteSink@2@IPEAVEdits@2@AEAW4UErrorCode@@@Z
?appendZeroCC@ReorderingBuffer@icu_62@@QEAACHAEAW4UErrorCode@@@Z
?appendZeroCC@ReorderingBuffer@icu_62@@QEAACPEB_S0AEAW4UErrorCode@@@Z
?applyFilter@UnicodeSet@icu_62@@AEAAXP6ACHPEAX@Z0HAEAW4UErrorCode@@@Z
?applyIntPropertyValue@UnicodeSet@icu_62@@QEAAAEAV12@W4UProperty@@HAEAW4UErrorCode@@@Z
?applyPattern@SimpleFormatter@icu_62@@QEAACAEBVUnicodeString@2@AEAW4UErrorCode@@@Z
?applyPattern@UnicodeSet@icu_62@@AEAAXAEAVRuleCharacterIterator@2@PEBVSymbolTable@2@AEAVUnicodeString@2@IP812@EAAAEAV12@H@ZHAEAW4UErrorCode@@@Z
?applyPattern@UnicodeSet@icu_62@@QEAAAEAV12@AEBVUnicodeString@2@AEAVParsePosition@2@IPEBVSymbolTable@2@AEAW4UErrorCode@@@Z
?applyPattern@UnicodeSet@icu_62@@QEAAAEAV12@AEBVUnicodeString@2@AEAW4UErrorCode@@@Z
?applyPattern@UnicodeSet@icu_62@@QEAAAEAV12@AEBVUnicodeString@2@IPEBVSymbolTable@2@AEAW4UErrorCode@@@Z
?applyPatternIgnoreSpace@UnicodeSet@icu_62@@AEAAXAEBVUnicodeString@2@AEAVParsePosition@2@PEBVSymbolTable@2@AEAW4UErrorCode@@@Z
?applyPatternMinMaxArguments@SimpleFormatter@icu_62@@QEAACAEBVUnicodeString@2@HHAEAW4UErrorCode@@@Z
?applyPropertyAlias@UnicodeSet@icu_62@@QEAAAEAV12@AEBVUnicodeString@2@0AEAW4UErrorCode@@@Z
?applyPropertyPattern@UnicodeSet@icu_62@@AEAAAEAV12@AEBVUnicodeString@2@AEAVParsePosition@2@AEAW4UErrorCode@@@Z
?applyPropertyPattern@UnicodeSet@icu_62@@AEAAXAEAVRuleCharacterIterator@2@AEAVUnicodeString@2@AEAW4UErrorCode@@@Z
?assertSuccess@ErrorCode@icu_62@@QEBAXXZ
?assign@UVector32@icu_62@@QEAAXAEBV12@AEAW4UErrorCode@@@Z
?assign@UVector64@icu_62@@QEAAXAEBV12@AEAW4UErrorCode@@@Z
?assign@UVector@icu_62@@QEAAXAEBV12@P6AXPEATUElement@@1@ZAEAW4UErrorCode@@@Z
?autoEvictedCount@UnifiedCache@icu_62@@QEBA_JXZ
?autoQuoteApostropheDeep@MessagePattern@icu_62@@QEBA?AVUnicodeString@2@XZ
?branchNext@BytesTrie@icu_62@@AEAA?AW4UStringTrieResult@@PEBEHH@Z
?branchNext@Iterator@BytesTrie@icu_62@@AEAAPEBEPEBEHAEAW4UErrorCode@@@Z
?branchNext@Iterator@UCharsTrie@icu_62@@AEAAPEB_SPEB_SHAEAW4UErrorCode@@@Z
?branchNext@UCharsTrie@icu_62@@AEAA?AW4UStringTrieResult@@PEB_SHH@Z
?build@BytesTrieBuilder@icu_62@@QEAAPEAVBytesTrie@2@W4UStringTrieBuildOption@@AEAW4UErrorCode@@@Z
?build@SimpleFilteredBreakIteratorBuilder@icu_62@@UEAAPEAVBreakIterator@2@PEAV32@AEAW4UErrorCode@@@Z
?build@StringTrieBuilder@icu_62@@IEAAXW4UStringTrieBuildOption@@HAEAW4UErrorCode@@@Z
?build@UCharsTrieBuilder@icu_62@@QEAAPEAVUCharsTrie@2@W4UStringTrieBuildOption@@AEAW4UErrorCode@@@Z
?buildBytes@BytesTrieBuilder@icu_62@@AEAAXW4UStringTrieBuildOption@@AEAW4UErrorCode@@@Z
?buildInstance@BreakIterator@icu_62@@CAPEAV12@AEBVLocale@2@PEBDAEAW4UErrorCode@@@Z
?buildStringPiece@BytesTrieBuilder@icu_62@@QEAA?AVStringPiece@2@W4UStringTrieBuildOption@@AEAW4UErrorCode@@@Z
?buildUChars@UCharsTrieBuilder@icu_62@@AEAAXW4UStringTrieBuildOption@@AEAW4UErrorCode@@@Z
?buildUnicodeString@UCharsTrieBuilder@icu_62@@QEAAAEAVUnicodeString@2@W4UStringTrieBuildOption@@AEAV32@AEAW4UErrorCode@@@Z
?canonicalID@ICUServiceKey@icu_62@@UEBAAEAVUnicodeString@2@AEAV32@@Z
?canonicalID@LocaleKey@icu_62@@UEBAAEAVUnicodeString@2@AEAV32@@Z
?canonicalLocale@LocaleKey@icu_62@@UEBAAEAVLocale@2@AEAV32@@Z
?canonicalLocaleString@LocaleUtility@icu_62@@SAAEAVUnicodeString@2@PEBV32@AEAV32@@Z
?caseCompare@UnicodeString@icu_62@@QEBACAEBV12@I@Z
?caseCompare@UnicodeString@icu_62@@QEBACHHAEBV12@HHI@Z
?caseCompare@UnicodeString@icu_62@@QEBACHHAEBV12@I@Z
?caseCompare@UnicodeString@icu_62@@QEBACHHPEB_SHHI@Z
?caseCompare@UnicodeString@icu_62@@QEBACHHPEB_SI@Z
?caseCompare@UnicodeString@icu_62@@QEBACVConstChar16Ptr@2@HI@Z
?caseCompareBetween@UnicodeString@icu_62@@QEBACHHAEBV12@HHI@Z
?caseMap@UnicodeString@icu_62@@AEAAAEAV12@HIPEAVBreakIterator@2@P6AHHI0PEA_SHPEB_SHPEAVEdits@2@AEAW4UErrorCode@@@Z@Z
?char32At@Replaceable@icu_62@@QEBAHH@Z
?char32At@UnicodeString@icu_62@@QEBAHH@Z
?charAt@Replaceable@icu_62@@QEBA_SH@Z
?charAt@UnicodeSet@icu_62@@QEBAHH@Z
?charAt@UnicodeString@icu_62@@QEBA_SH@Z
?chooseFrom@unisets@icu_62@@YA?AW4Key@12@VUnicodeString@2@W4312@1@Z
?chooseFrom@unisets@icu_62@@YA?AW4Key@12@VUnicodeString@2@W4312@@Z
?cleanPieces@CanonicalIterator@icu_62@@AEAAXXZ
?clear@BytesTrieBuilder@icu_62@@QEAAAEAV12@XZ
?clear@CharString@icu_62@@QEAAAEAV12@XZ
?clear@MessagePattern@icu_62@@QEAAXXZ
?clear@StringPiece@icu_62@@QEAAXXZ
?clear@UCharsTrieBuilder@icu_62@@QEAAAEAV12@XZ
?clear@UnicodeSet@icu_62@@UEAAAEAV12@XZ
?clearBuffer@Normalizer@icu_62@@AEAAXXZ
?clearCaches@ICUService@icu_62@@MEAAXXZ
?clearPatternAndSetApostropheMode@MessagePattern@icu_62@@QEAAXW4UMessagePatternApostropheMode@@@Z
?clearServiceCache@ICUService@icu_62@@IEAAXXZ
?clone@DateInterval@icu_62@@UEBAPEAV12@XZ
?clone@Locale@icu_62@@QEBAPEAV12@XZ
?clone@Normalizer@icu_62@@QEBAPEAV12@XZ
?clone@ParsePosition@icu_62@@QEBAPEAV12@XZ
?clone@Replaceable@icu_62@@UEBAPEAV12@XZ
?clone@ResourceBundle@icu_62@@QEBAPEAV12@XZ
?clone@RuleBasedBreakIterator@icu_62@@UEBAPEAVBreakIterator@2@XZ
?clone@StringCharacterIterator@icu_62@@UEBAPEAVCharacterIterator@2@XZ
?clone@StringEnumeration@icu_62@@UEBAPEAV12@XZ
?clone@UCharCharacterIterator@icu_62@@UEBAPEAVCharacterIterator@2@XZ
?clone@UnicodeSet@icu_62@@UEBAPEAVUnicodeFunctor@2@XZ
?clone@UnicodeString@icu_62@@UEBAPEAVReplaceable@2@XZ
?cloneArrayIfNeeded@UnicodeString@icu_62@@AEAACHHCPEAPEAHC@Z
?cloneAsThawed@UnicodeSet@icu_62@@QEBAPEAVUnicodeFunctor@2@XZ
?closeOver@UnicodeSet@icu_62@@QEAAAEAV12@H@Z
?combine@Normalizer2Impl@icu_62@@CAHPEBGH@Z
?compact@UnicodeSet@icu_62@@UEAAAEAV12@XZ
?compare@Normalizer@icu_62@@SAHAEBVUnicodeString@2@0IAEAW4UErrorCode@@@Z
?compare@UnicodeString@icu_62@@QEBACAEBV12@@Z
?compare@UnicodeString@icu_62@@QEBACHHAEBV12@@Z
?compare@UnicodeString@icu_62@@QEBACHHAEBV12@HH@Z
?compare@UnicodeString@icu_62@@QEBACHHPEB_S@Z
?compare@UnicodeString@icu_62@@QEBACHHPEB_SHH@Z
?compare@UnicodeString@icu_62@@QEBACVConstChar16Ptr@2@H@Z
?compareBetween@UnicodeString@icu_62@@QEBACHHAEBV12@HH@Z
?compareCodePointOrder@UnicodeString@icu_62@@QEBACAEBV12@@Z
?compareCodePointOrder@UnicodeString@icu_62@@QEBACHHAEBV12@@Z
?compareCodePointOrder@UnicodeString@icu_62@@QEBACHHAEBV12@HH@Z
?compareCodePointOrder@UnicodeString@icu_62@@QEBACHHPEB_S@Z
?compareCodePointOrder@UnicodeString@icu_62@@QEBACHHPEB_SHH@Z
?compareCodePointOrder@UnicodeString@icu_62@@QEBACVConstChar16Ptr@2@H@Z
?compareCodePointOrderBetween@UnicodeString@icu_62@@QEBACHHAEBV12@HH@Z
?complement@UnicodeSet@icu_62@@QEAAAEAV12@AEBVUnicodeString@2@@Z
?complement@UnicodeSet@icu_62@@QEAAAEAV12@H@Z
?complement@UnicodeSet@icu_62@@UEAAAEAV12@HH@Z
?complement@UnicodeSet@icu_62@@UEAAAEAV12@XZ
?complementAll@UnicodeSet@icu_62@@QEAAAEAV12@AEBVUnicodeString@2@@Z
?complementAll@UnicodeSet@icu_62@@UEAAAEAV12@AEBV12@@Z
?compose@Normalizer2Impl@icu_62@@QEBACPEB_S0CCAEAVReorderingBuffer@2@AEAW4UErrorCode@@@Z
?compose@Normalizer@icu_62@@SAXAEBVUnicodeString@2@CHAEAV32@AEAW4UErrorCode@@@Z
?composeAndAppend@Normalizer2Impl@icu_62@@QEBAXPEB_S0CCAEAVUnicodeString@2@AEAVReorderingBuffer@2@AEAW4UErrorCode@@@Z
?composePair@FilteredNormalizer2@icu_62@@UEBAHHH@Z
?composePair@Normalizer2@icu_62@@UEBAHHH@Z
?composePair@Normalizer2Impl@icu_62@@QEBAHHH@Z
?composeQuickCheck@Normalizer2Impl@icu_62@@QEBAPEB_SPEB_S0CPEAW4UNormalizationCheckResult@@@Z
?composeUTF8@Normalizer2Impl@icu_62@@QEBACICPEBE0PEAVByteSink@2@PEAVEdits@2@AEAW4UErrorCode@@@Z
?concatenate@Normalizer@icu_62@@SAAEAVUnicodeString@2@AEBV32@0AEAV32@W4UNormalizationMode@@HAEAW4UErrorCode@@@Z
?constructForLocale@ResourceBundle@icu_62@@AEAAXAEBVUnicodeString@2@AEBVLocale@2@AEAW4UErrorCode@@@Z
?contains@UStringSet@icu_62@@QEAACAEBVUnicodeString@2@@Z
?contains@UVector32@icu_62@@QEBACH@Z
?contains@UVector@icu_62@@QEBACH@Z
?contains@UVector@icu_62@@QEBACPEAX@Z
?contains@UnicodeSet@icu_62@@QEBACAEBVUnicodeString@2@@Z
?contains@UnicodeSet@icu_62@@UEBACH@Z
?contains@UnicodeSet@icu_62@@UEBACHH@Z
?containsAll@UVector32@icu_62@@QEBACAEBV12@@Z
?containsAll@UVector@icu_62@@QEBACAEBV12@@Z
?containsAll@UnicodeSet@icu_62@@QEBACAEBVUnicodeString@2@@Z
?containsAll@UnicodeSet@icu_62@@UEBACAEBV12@@Z
?containsNone@UVector32@icu_62@@QEBACAEBV12@@Z
?containsNone@UVector@icu_62@@QEBACAEBV12@@Z
?containsNone@UnicodeSet@icu_62@@QEBACAEBV12@@Z
?containsNone@UnicodeSet@icu_62@@QEBACAEBVUnicodeString@2@@Z
?containsNone@UnicodeSet@icu_62@@QEBACHH@Z
?containsSome@UnicodeSet@icu_62@@QEBACAEBV12@@Z
?containsSome@UnicodeSet@icu_62@@QEBACAEBVUnicodeString@2@@Z
?containsSome@UnicodeSet@icu_62@@QEBACHH@Z
?copy@UnicodeString@icu_62@@UEAAXHHH@Z
?copyArray@Edits@icu_62@@AEAAAEAV12@AEBV12@@Z
?copyErrorTo@Edits@icu_62@@QEAACAEAW4UErrorCode@@@Z
?copyFieldsFrom@UnicodeString@icu_62@@AEAAXAEAV12@C@Z
?copyFrom@CharString@icu_62@@QEAAAEAV12@AEBV12@AEAW4UErrorCode@@@Z
?copyFrom@UnicodeString@icu_62@@AEAAAEAV12@AEBV12@C@Z
?copyLowPrefixFromNulTerminated@Normalizer2Impl@icu_62@@AEBAPEB_SPEB_SHPEAVReorderingBuffer@2@AEAW4UErrorCode@@@Z
?copyReorderableSuffixTo@ReorderingBuffer@icu_62@@QEBAXAEAVUnicodeString@2@@Z
?copyStorage@MessagePattern@icu_62@@AEAACAEBV12@AEAW4UErrorCode@@@Z
?count@Hashtable@icu_62@@QEBAHXZ
?count@UStringEnumeration@icu_62@@UEBAHAEAW4UErrorCode@@@Z
?countChar32@UnicodeString@icu_62@@QEBAHHH@Z
?countElementUnits@BytesTrieBuilder@icu_62@@EEBAHHHH@Z
?countElementUnits@UCharsTrieBuilder@icu_62@@EEBAHHHH@Z
?countFactories@ICUService@icu_62@@IEBAHXZ
?countParts@MessagePattern@icu_62@@QEBAHXZ
?create@LocaleKeyFactory@icu_62@@UEBAPEAVUObject@2@AEBVICUServiceKey@2@PEBVICUService@2@AEAW4UErrorCode@@@Z
?create@SimpleFactory@icu_62@@UEBAPEAVUObject@2@AEBVICUServiceKey@2@PEBVICUService@2@AEAW4UErrorCode@@@Z
?create@SimpleLocaleKeyFactory@icu_62@@UEBAPEAVUObject@2@AEBVICUServiceKey@2@PEBVICUService@2@AEAW4UErrorCode@@@Z
?create@StringPair@icu_62@@SAPEAV12@AEBVUnicodeString@2@0AEAW4UErrorCode@@@Z
?createBufferClone@RuleBasedBreakIterator@icu_62@@UEAAPEAVBreakIterator@2@PEAXAEAHAEAW4UErrorCode@@@Z
?createCanonical@Locale@icu_62@@SA?AV12@PEBD@Z
?createCharacterInstance@BreakIterator@icu_62@@SAPEAV12@AEBVLocale@2@AEAW4UErrorCode@@@Z
?createCompactBuilder@StringTrieBuilder@icu_62@@IEAAXHAEAW4UErrorCode@@@Z
?createEmptyInstance@FilteredBreakIteratorBuilder@icu_62@@SAPEAV12@AEAW4UErrorCode@@@Z
?createFrom@UnicodeSet@icu_62@@SAPEAV12@AEBVUnicodeString@2@@Z
?createFromAll@UnicodeSet@icu_62@@SAPEAV12@AEBVUnicodeString@2@@Z
?createFromName@Locale@icu_62@@SA?AV12@PEBD@Z
?createInstance@BreakIterator@icu_62@@CAPEAV12@AEBVLocale@2@HAEAW4UErrorCode@@@Z
?createInstance@FilteredBreakIteratorBuilder@icu_62@@SAPEAV12@AEAW4UErrorCode@@@Z
?createInstance@FilteredBreakIteratorBuilder@icu_62@@SAPEAV12@AEBVLocale@2@AEAW4UErrorCode@@@Z
?createInstance@ListFormatter@icu_62@@SAPEAV12@AEAW4UErrorCode@@@Z
?createInstance@ListFormatter@icu_62@@SAPEAV12@AEBVLocale@2@AEAW4UErrorCode@@@Z
?createInstance@ListFormatter@icu_62@@SAPEAV12@AEBVLocale@2@PEBDAEAW4UErrorCode@@@Z
?createInstance@LocaleDisplayNames@icu_62@@SAPEAV12@AEBVLocale@2@@Z
?createInstance@LocaleDisplayNames@icu_62@@SAPEAV12@AEBVLocale@2@PEAW4UDisplayContext@@H@Z
?createInstance@LocaleDisplayNames@icu_62@@SAPEAV12@AEBVLocale@2@W4UDialectHandling@@@Z
?createKey@ICULocaleService@icu_62@@MEBAPEAVICUServiceKey@2@PEBVUnicodeString@2@AEAW4UErrorCode@@@Z
?createKey@ICULocaleService@icu_62@@MEBAPEAVICUServiceKey@2@PEBVUnicodeString@2@HAEAW4UErrorCode@@@Z
?createKey@ICUService@icu_62@@UEBAPEAVICUServiceKey@2@PEBVUnicodeString@2@AEAW4UErrorCode@@@Z
?createKeywords@Locale@icu_62@@QEBAPEAVStringEnumeration@2@AEAW4UErrorCode@@@Z
?createLineInstance@BreakIterator@icu_62@@SAPEAV12@AEBVLocale@2@AEAW4UErrorCode@@@Z
?createLinearMatchNode@BytesTrieBuilder@icu_62@@EEBAPEAVNode@StringTrieBuilder@2@HHHPEAV342@@Z
?createLinearMatchNode@UCharsTrieBuilder@icu_62@@EEBAPEAVNode@StringTrieBuilder@2@HHHPEAV342@@Z
?createSentenceInstance@BreakIterator@icu_62@@SAPEAV12@AEBVLocale@2@AEAW4UErrorCode@@@Z
?createSimpleFactory@ICUService@icu_62@@MEAAPEAVICUServiceFactory@2@PEAVUObject@2@AEBVUnicodeString@2@CAEAW4UErrorCode@@@Z
?createTitleInstance@BreakIterator@icu_62@@SAPEAV12@AEBVLocale@2@AEAW4UErrorCode@@@Z
?createUTS46Instance@IDNA@icu_62@@SAPEAV12@IAEAW4UErrorCode@@@Z
?createWithCanonicalFallback@LocaleKey@icu_62@@SAPEAV12@PEBVUnicodeString@2@0AEAW4UErrorCode@@@Z
?createWithCanonicalFallback@LocaleKey@icu_62@@SAPEAV12@PEBVUnicodeString@2@0HAEAW4UErrorCode@@@Z
?createWordInstance@BreakIterator@icu_62@@SAPEAV12@AEBVLocale@2@AEAW4UErrorCode@@@Z
?current32@UCharCharacterIterator@icu_62@@UEBAHXZ
?current@BytesTrie@icu_62@@QEBA?AW4UStringTrieResult@@XZ
?current@Normalizer@icu_62@@QEAAHXZ
?current@RuleBasedBreakIterator@icu_62@@UEBAHXZ
?current@UCharCharacterIterator@icu_62@@UEBA_SXZ
?current@UCharsTrie@icu_62@@QEBA?AW4UStringTrieResult@@XZ
?currentDescriptor@ICUServiceKey@icu_62@@UEBAAEAVUnicodeString@2@AEAV32@@Z
?currentDescriptor@LocaleKey@icu_62@@UEBAAEAVUnicodeString@2@AEAV32@@Z
?currentID@ICUServiceKey@icu_62@@UEBAAEAVUnicodeString@2@AEAV32@@Z
?currentID@LocaleKey@icu_62@@UEBAAEAVUnicodeString@2@AEAV32@@Z
?currentLocale@LocaleKey@icu_62@@UEBAAEAVLocale@2@AEAV32@@Z
?data@CharString@icu_62@@QEAAPEADXZ
?data@CharString@icu_62@@QEBAPEBDXZ
?data@StringPiece@icu_62@@QEBAPEBDXZ
?decompose@Hangul@icu_62@@SAHHQEA_S@Z
?decompose@Normalizer2Impl@icu_62@@AEBACHGAEAVReorderingBuffer@2@AEAW4UErrorCode@@@Z
?decompose@Normalizer2Impl@icu_62@@QEBAAEAVUnicodeString@2@AEBV32@AEAV32@AEAW4UErrorCode@@@Z
?decompose@Normalizer2Impl@icu_62@@QEBAPEB_SPEB_S0PEAVReorderingBuffer@2@AEAW4UErrorCode@@@Z
?decompose@Normalizer2Impl@icu_62@@QEBAXPEB_S0AEAVUnicodeString@2@HAEAW4UErrorCode@@@Z
?decompose@Normalizer@icu_62@@SAXAEBVUnicodeString@2@CHAEAV32@AEAW4UErrorCode@@@Z
?decomposeAndAppend@Normalizer2Impl@icu_62@@QEBAXPEB_S0CAEAVUnicodeString@2@AEAVReorderingBuffer@2@AEAW4UErrorCode@@@Z
?decomposeShort@Normalizer2Impl@icu_62@@AEBAPEBEPEBE0CCAEAVReorderingBuffer@2@AEAW4UErrorCode@@@Z
?decomposeShort@Normalizer2Impl@icu_62@@AEBAPEB_SPEB_S0CCAEAVReorderingBuffer@2@AEAW4UErrorCode@@@Z
?deleteCompactBuilder@StringTrieBuilder@icu_62@@IEAAXXZ
?deleteIfZeroRefCount@SharedObject@icu_62@@QEBAXXZ
?destinationIndex@Iterator@Edits@icu_62@@QEBAHXZ
?destinationIndexFromSourceIndex@Iterator@Edits@icu_62@@QEAAHHAEAW4UErrorCode@@@Z
?doAppend@UnicodeString@icu_62@@AEAAAEAV12@AEBV12@HH@Z
?doAppend@UnicodeString@icu_62@@AEAAAEAV12@PEB_SHH@Z
?doCaseCompare@UnicodeString@icu_62@@AEBACHHAEBV12@HHI@Z
?doCaseCompare@UnicodeString@icu_62@@AEBACHHPEB_SHHI@Z
?doCharAt@UnicodeString@icu_62@@AEBA_SH@Z
?doCodepageCreate@UnicodeString@icu_62@@AEAAXPEBDH0@Z
?doCodepageCreate@UnicodeString@icu_62@@AEAAXPEBDHPEAUUConverter@@AEAW4UErrorCode@@@Z
?doCompare@UnicodeString@icu_62@@AEBACHHAEBV12@HH@Z
?doCompare@UnicodeString@icu_62@@AEBACHHPEB_SHH@Z
?doCompareCodePointOrder@UnicodeString@icu_62@@AEBACHHAEBV12@HH@Z
?doCompareCodePointOrder@UnicodeString@icu_62@@AEBACHHPEB_SHH@Z
?doEquals@UnicodeString@icu_62@@AEBACAEBV12@H@Z
?doExtract@UnicodeString@icu_62@@AEBAHHHPEADHPEAUUConverter@@AEAW4UErrorCode@@@Z
?doExtract@UnicodeString@icu_62@@AEBAXHHAEAV12@@Z
?doExtract@UnicodeString@icu_62@@AEBAXHHPEA_SH@Z
?doHashCode@UnicodeString@icu_62@@AEBAHXZ
?doIndexOf@UnicodeString@icu_62@@AEBAHHHH@Z
?doIndexOf@UnicodeString@icu_62@@AEBAH_SHH@Z
?doLastIndexOf@UnicodeString@icu_62@@AEBAHHHH@Z
?doLastIndexOf@UnicodeString@icu_62@@AEBAH_SHH@Z
?doReplace@UnicodeString@icu_62@@AEAAAEAV12@HHAEBV12@HH@Z
?doReplace@UnicodeString@icu_62@@AEAAAEAV12@HHPEB_SHH@Z
?doReverse@UnicodeString@icu_62@@AEAAAEAV12@HH@Z
?dumpCache@RuleBasedBreakIterator@icu_62@@QEAAXXZ
?dumpTables@RuleBasedBreakIterator@icu_62@@QEAAXXZ
?elementAt@UVector@icu_62@@QEBAPEAXH@Z
?elementAti@UVector32@icu_62@@QEBAHH@Z
?elementAti@UVector64@icu_62@@QEBA_JH@Z
?elementAti@UVector@icu_62@@QEBAHH@Z
?empty@StringPiece@icu_62@@QEBACXZ
?empty@UStack@icu_62@@QEBACXZ
?empty@UVector32@icu_62@@QEBACXZ
?endIndex@CharacterIterator@icu_62@@QEBAHXZ
?endIndex@Normalizer@icu_62@@QEBAHXZ
?endsWith@UnicodeString@icu_62@@QEBACAEBV12@@Z
?endsWith@UnicodeString@icu_62@@QEBACAEBV12@HH@Z
?endsWith@UnicodeString@icu_62@@QEBACPEB_SHH@Z
?endsWith@UnicodeString@icu_62@@QEBACVConstChar16Ptr@2@H@Z
?ensureBufferCapacity@UnicodeSet@icu_62@@AEAAXHAEAW4UErrorCode@@@Z
?ensureCanonIterData@Normalizer2Impl@icu_62@@QEBACAEAW4UErrorCode@@@Z
?ensureCapacity@BytesTrieBuilder@icu_62@@AEAACH@Z
?ensureCapacity@CharString@icu_62@@AEAACHHAEAW4UErrorCode@@@Z
?ensureCapacity@UCharsTrieBuilder@icu_62@@AEAACH@Z
?ensureCapacity@UVector32@icu_62@@QEAACHAEAW4UErrorCode@@@Z
?ensureCapacity@UVector64@icu_62@@QEAACHAEAW4UErrorCode@@@Z
?ensureCapacity@UVector@icu_62@@QEAACHAEAW4UErrorCode@@@Z
?ensureCapacity@UnicodeSet@icu_62@@AEAAXHAEAW4UErrorCode@@@Z
?ensureCharsCapacity@StringEnumeration@icu_62@@IEAAXHAEAW4UErrorCode@@@Z
?ensureEndsWithFileSeparator@CharString@icu_62@@QEAAAEAV12@AEAW4UErrorCode@@@Z
?equalNodes@StringTrieBuilder@icu_62@@SACPEBX0@Z
?equals@Hashtable@icu_62@@QEBACAEBV12@@Z
?equals@ReorderingBuffer@icu_62@@QEBACPEBE0@Z
?equals@ReorderingBuffer@icu_62@@QEBACPEB_S0@Z
?equals@UVector32@icu_62@@QEBACAEBV12@@Z
?equals@UVector@icu_62@@QEBACAEBV12@@Z
?errorName@ErrorCode@icu_62@@QEBAPEBDXZ
?escapeUnprintable@ICU_Utility@icu_62@@SACAEAVUnicodeString@2@H@Z
?exclusiveOr@UnicodeSet@icu_62@@AEAAXPEBHHC@Z
?expandCapacity@UVector32@icu_62@@QEAACHAEAW4UErrorCode@@@Z
?expandCapacity@UVector64@icu_62@@QEAACHAEAW4UErrorCode@@@Z
?extract@CanonicalIterator@icu_62@@AEAAPEAVHashtable@2@PEAV32@HPEB_SHHAEAW4UErrorCode@@@Z
?extract@UnicodeString@icu_62@@QEBAHHHPEADHW4EInvariant@12@@Z
?extract@UnicodeString@icu_62@@QEBAHHHPEADI@Z
?extract@UnicodeString@icu_62@@QEBAHHHPEADIPEBD@Z
?extract@UnicodeString@icu_62@@QEBAHHHPEADPEBD@Z
?extract@UnicodeString@icu_62@@QEBAHPEADHPEAUUConverter@@AEAW4UErrorCode@@@Z
?extract@UnicodeString@icu_62@@QEBAHVChar16Ptr@2@HAEAW4UErrorCode@@@Z
?extract@UnicodeString@icu_62@@QEBAXHHAEAV12@@Z
?extract@UnicodeString@icu_62@@QEBAXHHVChar16Ptr@2@H@Z
?extractBetween@UnicodeString@icu_62@@QEBAXHHPEA_SH@Z
?extractBetween@UnicodeString@icu_62@@UEBAXHHAEAV12@@Z
?fallback@ICUServiceKey@icu_62@@UEAACXZ
?fallback@LocaleKey@icu_62@@UEAACXZ
?fastCopyFrom@UnicodeString@icu_62@@QEAAAEAV12@AEBV12@@Z
?find@Hashtable@icu_62@@QEBAPEBUUHashElement@@AEBVUnicodeString@2@@Z
?findAndReplace@UnicodeString@icu_62@@QEAAAEAV12@AEBV12@0@Z
?findAndReplace@UnicodeString@icu_62@@QEAAAEAV12@HHAEBV12@0@Z
?findAndReplace@UnicodeString@icu_62@@QEAAAEAV12@HHAEBV12@HH0HH@Z
?findCodePoint@UnicodeSet@icu_62@@AEBAHH@Z
?findDestinationIndex@Iterator@Edits@icu_62@@QEAACHAEAW4UErrorCode@@@Z
?findIndex@Iterator@Edits@icu_62@@AEAAHHCAEAW4UErrorCode@@@Z
?findNextCompBoundary@Normalizer2Impl@icu_62@@AEBAPEB_SPEB_S0C@Z
?findNextFCDBoundary@Normalizer2Impl@icu_62@@AEBAPEB_SPEB_S0@Z
?findPreviousCompBoundary@Normalizer2Impl@icu_62@@AEBAPEB_SPEB_S0C@Z
?findPreviousFCDBoundary@Normalizer2Impl@icu_62@@AEBAPEB_SPEB_S0@Z
?findSourceIndex@Iterator@Edits@icu_62@@QEAACHAEAW4UErrorCode@@@Z
?findUniqueValue@BytesTrie@icu_62@@CACPEBECAEAH@Z
?findUniqueValue@UCharsTrie@icu_62@@CACPEB_SCAEAH@Z
?findUniqueValueFromBranch@BytesTrie@icu_62@@CAPEBEPEBEHCAEAH@Z
?findUniqueValueFromBranch@UCharsTrie@icu_62@@CAPEB_SPEB_SHCAEAH@Z
?first32@UCharCharacterIterator@icu_62@@UEAAHXZ
?first32PostInc@CharacterIterator@icu_62@@UEAAHXZ
?first32PostInc@UCharCharacterIterator@icu_62@@UEAAHXZ
?first@BytesTrie@icu_62@@QEAA?AW4UStringTrieResult@@H@Z
?first@Normalizer@icu_62@@QEAAHXZ
?first@RuleBasedBreakIterator@icu_62@@UEAAHXZ
?first@UCharCharacterIterator@icu_62@@UEAA_SXZ
?first@UCharsTrie@icu_62@@QEAA?AW4UStringTrieResult@@H@Z
?firstElement@UVector@icu_62@@QEBAPEAXXZ
?firstForCodePoint@UCharsTrie@icu_62@@QEAA?AW4UStringTrieResult@@H@Z
?firstPostInc@CharacterIterator@icu_62@@UEAA_SXZ
?firstPostInc@UCharCharacterIterator@icu_62@@UEAA_SXZ
?flush@UnifiedCache@icu_62@@QEBAXXZ
?fold@CaseMap@icu_62@@SAHIPEB_SHPEA_SHPEAVEdits@2@AEAW4UErrorCode@@@Z
?foldCase@UnicodeString@icu_62@@QEAAAEAV12@I@Z
?following@RuleBasedBreakIterator@icu_62@@UEAAHH@Z
?format@ListFormatter@icu_62@@QEBAAEAVUnicodeString@2@QEBV32@HAEAV32@AEAW4UErrorCode@@@Z
?format@ListFormatter@icu_62@@QEBAAEAVUnicodeString@2@QEBV32@HAEAV32@HAEAHAEAW4UErrorCode@@@Z
?format@SimpleFormatter@icu_62@@CAAEAVUnicodeString@2@PEB_SHPEBQEBV32@AEAV32@PEBV32@CPEAHHAEAW4UErrorCode@@@Z
?format@SimpleFormatter@icu_62@@QEBAAEAVUnicodeString@2@AEBV32@00AEAV32@AEAW4UErrorCode@@@Z
?format@SimpleFormatter@icu_62@@QEBAAEAVUnicodeString@2@AEBV32@0AEAV32@AEAW4UErrorCode@@@Z
?format@SimpleFormatter@icu_62@@QEBAAEAVUnicodeString@2@AEBV32@AEAV32@AEAW4UErrorCode@@@Z
?formatAndAppend@SimpleFormatter@icu_62@@QEBAAEAVUnicodeString@2@PEBQEBV32@HAEAV32@PEAHHAEAW4UErrorCode@@@Z
?formatAndReplace@SimpleFormatter@icu_62@@QEBAAEAVUnicodeString@2@PEBQEBV32@HAEAV32@PEAHHAEAW4UErrorCode@@@Z
?freeze@UnicodeSet@icu_62@@QEAAPEAVUnicodeFunctor@2@XZ
?fromUEnumeration@UStringEnumeration@icu_62@@SAPEAV12@PEAUUEnumeration@@AEAW4UErrorCode@@@Z
?fromUSet@UnicodeSet@icu_62@@SAPEAV12@PEAUUSet@@@Z
?fromUSet@UnicodeSet@icu_62@@SAPEBV12@PEBUUSet@@@Z
?fromUTF32@UnicodeString@icu_62@@SA?AV12@PEBHH@Z
?fromUTF8@UnicodeString@icu_62@@SA?AV12@VStringPiece@2@@Z
?get@Char16Ptr@icu_62@@QEBAPEA_SXZ
?get@ConstChar16Ptr@icu_62@@QEBAPEB_SXZ
?get@ErrorCode@icu_62@@QEBA?AW4UErrorCode@@XZ
?get@Hashtable@icu_62@@QEBAPEAXAEBVUnicodeString@2@@Z
?get@ICULocaleService@icu_62@@QEBAPEAVUObject@2@AEBVLocale@2@AEAW4UErrorCode@@@Z
?get@ICULocaleService@icu_62@@QEBAPEAVUObject@2@AEBVLocale@2@HAEAW4UErrorCode@@@Z
?get@ICULocaleService@icu_62@@QEBAPEAVUObject@2@AEBVLocale@2@HPEAV42@AEAW4UErrorCode@@@Z
?get@ICULocaleService@icu_62@@QEBAPEAVUObject@2@AEBVLocale@2@PEAV42@AEAW4UErrorCode@@@Z
?get@ICUService@icu_62@@QEBAPEAVUObject@2@AEBVUnicodeString@2@AEAW4UErrorCode@@@Z
?get@ICUService@icu_62@@QEBAPEAVUObject@2@AEBVUnicodeString@2@PEAV42@AEAW4UErrorCode@@@Z
?get@ResourceBundle@icu_62@@QEBA?AV12@HAEAW4UErrorCode@@@Z
?get@ResourceBundle@icu_62@@QEBA?AV12@PEBDAEAW4UErrorCode@@@Z
?get@unisets@icu_62@@YAPEBVUnicodeSet@2@W4Key@12@@Z
?getAlgorithmicDelta@Normalizer2Impl@icu_62@@AEBAHG@Z
?getAlias@?$MaybeStackArray@D$0CI@@icu_62@@QEBAPEADXZ
?getAliasUnicodeString@ResourceValue@icu_62@@QEBA?AVUnicodeString@2@AEAW4UErrorCode@@@Z
?getApostropheMode@MessagePattern@icu_62@@QEBA?AW4UMessagePatternApostropheMode@@XZ
?getAppendBuffer@Appendable@icu_62@@UEAAPEA_SHHPEA_SHPEAH@Z
?getAppendBuffer@CharString@icu_62@@QEAAPEADHHAEAHAEAW4UErrorCode@@@Z
?getAppendBuffer@UnicodeStringAppendable@icu_62@@UEAAPEA_SHHPEA_SHPEAH@Z
?getArgumentLimit@SimpleFormatter@icu_62@@CAHPEB_SH@Z
?getArgumentLimit@SimpleFormatter@icu_62@@QEBAHXZ
?getArrayLimit@?$MaybeStackArray@D$0CI@@icu_62@@QEBAPEADXZ
?getArrayStart@UnicodeString@icu_62@@AEAAPEA_SXZ
?getArrayStart@UnicodeString@icu_62@@AEBAPEB_SXZ
?getAvailableLocaleNames@LocaleUtility@icu_62@@SAPEBVHashtable@2@AEBVUnicodeString@2@@Z
?getAvailableLocales@BreakIterator@icu_62@@SAPEAVStringEnumeration@2@XZ
?getAvailableLocales@BreakIterator@icu_62@@SAPEBVLocale@2@AEAH@Z
?getAvailableLocales@ICULocaleService@icu_62@@UEBAPEAVStringEnumeration@2@XZ
?getAvailableLocales@Locale@icu_62@@SAPEBV12@AEAH@Z
?getBaseName@Locale@icu_62@@QEBAPEBDXZ
?getBinary@ResourceBundle@icu_62@@QEBAPEBEAEAHAEAW4UErrorCode@@@Z
?getBinaryRules@RuleBasedBreakIterator@icu_62@@UEAAPEBEAEAI@Z
?getBuffer@UVector32@icu_62@@QEBAPEAHXZ
?getBuffer@UVector64@icu_62@@QEBAPEA_JXZ
?getBuffer@UnicodeString@icu_62@@QEAAPEA_SH@Z
?getBuffer@UnicodeString@icu_62@@QEBAPEB_SXZ
?getCC@Normalizer2Impl@icu_62@@QEBAEG@Z
?getCCFromNoNo@Normalizer2Impl@icu_62@@AEBAEG@Z
?getCCFromNormalYesOrMaybe@Normalizer2Impl@icu_62@@SAEG@Z
?getCCFromYesOrMaybe@Normalizer2Impl@icu_62@@SAEG@Z
?getCCFromYesOrMaybeCP@Normalizer2Impl@icu_62@@QEBAEH@Z
?getCanada@Locale@icu_62@@SAAEBV12@XZ
?getCanadaFrench@Locale@icu_62@@SAAEBV12@XZ
?getCanonStartSet@Normalizer2Impl@icu_62@@AEBAAEBVUnicodeSet@2@H@Z
?getCanonStartSet@Normalizer2Impl@icu_62@@QEBACHAEAVUnicodeSet@2@@Z
?getCanonValue@Normalizer2Impl@icu_62@@AEBAHH@Z
?getCapacity@?$MaybeStackArray@D$0CI@@icu_62@@QEBAHXZ
?getCapacity@UnicodeString@icu_62@@QEBAHXZ
?getCategoryName@PluralMapBase@icu_62@@SAPEBDW4Category@12@@Z
?getChar32At@UnicodeString@icu_62@@MEBAHH@Z
?getChar32Limit@UnicodeString@icu_62@@QEBAHH@Z
?getChar32Start@UnicodeString@icu_62@@QEBAHH@Z
?getCharAt@UnicodeString@icu_62@@MEBA_SH@Z
?getChina@Locale@icu_62@@SAAEBV12@XZ
?getChinese@Locale@icu_62@@SAAEBV12@XZ
?getCoarseChangesIterator@Edits@icu_62@@QEBA?AUIterator@12@XZ
?getCoarseIterator@Edits@icu_62@@QEBA?AUIterator@12@XZ
?getCodepoint@UnicodeSetIterator@icu_62@@QEBAHXZ
?getCodepointEnd@UnicodeSetIterator@icu_62@@QEBAHXZ
?getCombiningClass@FilteredNormalizer2@icu_62@@UEBAEH@Z
?getCombiningClass@Normalizer2@icu_62@@UEBAEH@Z
?getCompQuickCheck@Normalizer2Impl@icu_62@@QEBA?AW4UNormalizationCheckResult@@G@Z
?getCompositionsList@Normalizer2Impl@icu_62@@AEBAPEBGG@Z
?getCompositionsListForComposite@Normalizer2Impl@icu_62@@AEBAPEBGG@Z
?getCompositionsListForDecompYes@Normalizer2Impl@icu_62@@AEBAPEBGG@Z
?getCompositionsListForMaybe@Normalizer2Impl@icu_62@@AEBAPEBGG@Z
?getCountry@Locale@icu_62@@QEBAPEBDXZ
?getDecomposition@FilteredNormalizer2@icu_62@@UEBACHAEAVUnicodeString@2@@Z
?getDecomposition@Normalizer2Impl@icu_62@@QEBAPEB_SHQEA_SAEAH@Z
?getDefault@Locale@icu_62@@SAAEBV12@XZ
?getDisplayCountry@Locale@icu_62@@QEBAAEAVUnicodeString@2@AEAV32@@Z
?getDisplayCountry@Locale@icu_62@@QEBAAEAVUnicodeString@2@AEBV12@AEAV32@@Z
?getDisplayLanguage@Locale@icu_62@@QEBAAEAVUnicodeString@2@AEAV32@@Z
?getDisplayLanguage@Locale@icu_62@@QEBAAEAVUnicodeString@2@AEBV12@AEAV32@@Z
?getDisplayName@BreakIterator@icu_62@@SAAEAVUnicodeString@2@AEBVLocale@2@0AEAV32@@Z
?getDisplayName@BreakIterator@icu_62@@SAAEAVUnicodeString@2@AEBVLocale@2@AEAV32@@Z
?getDisplayName@ICUService@icu_62@@QEBAAEAVUnicodeString@2@AEBV32@AEAV32@@Z
?getDisplayName@ICUService@icu_62@@QEBAAEAVUnicodeString@2@AEBV32@AEAV32@AEBVLocale@2@@Z
?getDisplayName@Locale@icu_62@@QEBAAEAVUnicodeString@2@AEAV32@@Z
?getDisplayName@Locale@icu_62@@QEBAAEAVUnicodeString@2@AEBV12@AEAV32@@Z
?getDisplayName@LocaleKeyFactory@icu_62@@UEBAAEAVUnicodeString@2@AEBV32@AEBVLocale@2@AEAV32@@Z
?getDisplayName@SimpleFactory@icu_62@@UEBAAEAVUnicodeString@2@AEBV32@AEBVLocale@2@AEAV32@@Z
?getDisplayNames@ICUService@icu_62@@QEBAAEAVUVector@2@AEAV32@AEAW4UErrorCode@@@Z
?getDisplayNames@ICUService@icu_62@@QEBAAEAVUVector@2@AEAV32@AEBVLocale@2@AEAW4UErrorCode@@@Z
?getDisplayNames@ICUService@icu_62@@QEBAAEAVUVector@2@AEAV32@AEBVLocale@2@PEBVUnicodeString@2@AEAW4UErrorCode@@@Z
?getDisplayScript@Locale@icu_62@@QEBAAEAVUnicodeString@2@AEAV32@@Z
?getDisplayScript@Locale@icu_62@@QEBAAEAVUnicodeString@2@AEBV12@AEAV32@@Z
?getDisplayVariant@Locale@icu_62@@QEBAAEAVUnicodeString@2@AEAV32@@Z
?getDisplayVariant@Locale@icu_62@@QEBAAEAVUnicodeString@2@AEBV12@AEAV32@@Z
?getDynamicClassID@CanonicalIterator@icu_62@@UEBAPEAXXZ
?getDynamicClassID@DateInterval@icu_62@@UEBAPEAXXZ
?getDynamicClassID@EventListener@icu_62@@UEBAPEAXXZ
?getDynamicClassID@ICUResourceBundleFactory@icu_62@@UEBAPEAXXZ
?getDynamicClassID@ICUServiceKey@icu_62@@UEBAPEAXXZ
?getDynamicClassID@Locale@icu_62@@UEBAPEAXXZ
?getDynamicClassID@LocaleKey@icu_62@@UEBAPEAXXZ
?getDynamicClassID@LocaleKeyFactory@icu_62@@UEBAPEAXXZ
?getDynamicClassID@Normalizer@icu_62@@UEBAPEAXXZ
?getDynamicClassID@ParsePosition@icu_62@@UEBAPEAXXZ
?getDynamicClassID@ResourceBundle@icu_62@@UEBAPEAXXZ
?getDynamicClassID@RuleBasedBreakIterator@icu_62@@UEBAPEAXXZ
?getDynamicClassID@ServiceListener@icu_62@@UEBAPEAXXZ
?getDynamicClassID@SimpleFactory@icu_62@@UEBAPEAXXZ
?getDynamicClassID@SimpleLocaleKeyFactory@icu_62@@UEBAPEAXXZ
?getDynamicClassID@StringCharacterIterator@icu_62@@UEBAPEAXXZ
?getDynamicClassID@UCharCharacterIterator@icu_62@@UEBAPEAXXZ
?getDynamicClassID@UObject@icu_62@@UEBAPEAXXZ
?getDynamicClassID@UStack@icu_62@@UEBAPEAXXZ
?getDynamicClassID@UStringEnumeration@icu_62@@UEBAPEAXXZ
?getDynamicClassID@UVector32@icu_62@@UEBAPEAXXZ
?getDynamicClassID@UVector64@icu_62@@UEBAPEAXXZ
?getDynamicClassID@UVector@icu_62@@UEBAPEAXXZ
?getDynamicClassID@UnicodeSet@icu_62@@UEBAPEAXXZ
?getDynamicClassID@UnicodeSetIterator@icu_62@@UEBAPEAXXZ
?getDynamicClassID@UnicodeString@icu_62@@UEBAPEAXXZ
?getElementStringLength@BytesTrieBuilder@icu_62@@EEBAHH@Z
?getElementStringLength@UCharsTrieBuilder@icu_62@@EEBAHH@Z
?getElementUnit@BytesTrieBuilder@icu_62@@EEBA_SHH@Z
?getElementUnit@UCharsTrieBuilder@icu_62@@EEBA_SHH@Z
?getElementValue@BytesTrieBuilder@icu_62@@EEBAHH@Z
?getElementValue@UCharsTrieBuilder@icu_62@@EEBAHH@Z
?getEnglish@Locale@icu_62@@SAAEBV12@XZ
?getEquivalents2@CanonicalIterator@icu_62@@AEAAPEAVHashtable@2@PEAV32@PEB_SHAEAW4UErrorCode@@@Z
?getEquivalents@CanonicalIterator@icu_62@@AEAAPEAVUnicodeString@2@AEBV32@AEAHAEAW4UErrorCode@@@Z
?getErrorIndex@ParsePosition@icu_62@@QEBAHXZ
?getErrors@IDNAInfo@icu_62@@QEBAIXZ
?getFCCInstance@Normalizer2Factory@icu_62@@SAPEBVNormalizer2@2@AEAW4UErrorCode@@@Z
?getFCD16@Normalizer2Impl@icu_62@@QEBAGH@Z
?getFCD16FromNormData@Normalizer2Impl@icu_62@@QEBAGH@Z
?getFCDInstance@Normalizer2Factory@icu_62@@SAPEBVNormalizer2@2@AEAW4UErrorCode@@@Z
?getFineChangesIterator@Edits@icu_62@@QEBA?AUIterator@12@XZ
?getFineIterator@Edits@icu_62@@QEBA?AUIterator@12@XZ
?getFrance@Locale@icu_62@@SAAEBV12@XZ
?getFrench@Locale@icu_62@@SAAEBV12@XZ
?getFromDate@DateInterval@icu_62@@QEBANXZ
?getGerman@Locale@icu_62@@SAAEBV12@XZ
?getGermany@Locale@icu_62@@SAAEBV12@XZ
?getID@ICUServiceKey@icu_62@@UEBAAEBVUnicodeString@2@XZ
?getISO3Country@Locale@icu_62@@QEBAPEBDXZ
?getISO3Language@Locale@icu_62@@QEBAPEBDXZ
?getISOCountries@Locale@icu_62@@SAPEBQEBDXZ
?getISOLanguages@Locale@icu_62@@SAPEBQEBDXZ
?getImpl@Normalizer2Factory@icu_62@@SAPEBVNormalizer2Impl@2@PEBVNormalizer2@2@@Z
?getInclusions@UnicodeSet@icu_62@@CAPEBV12@HAEAW4UErrorCode@@@Z
?getIndex@CharacterIterator@icu_62@@QEBAHXZ
?getIndex@Normalizer@icu_62@@QEBAHXZ
?getIndex@ParsePosition@icu_62@@QEBAHXZ
?getInstance@Normalizer2@icu_62@@SAPEBV12@PEBD0W4UNormalization2Mode@@AEAW4UErrorCode@@@Z
?getInstance@Normalizer2Factory@icu_62@@SAPEBVNormalizer2@2@W4UNormalizationMode@@AEAW4UErrorCode@@@Z
?getInstance@UnifiedCache@icu_62@@SAPEAV12@AEAW4UErrorCode@@@Z
?getInt@ResourceBundle@icu_62@@QEBAHAEAW4UErrorCode@@@Z
?getIntVector@ResourceBundle@icu_62@@QEBAPEBHAEAHAEAW4UErrorCode@@@Z
?getItalian@Locale@icu_62@@SAAEBV12@XZ
?getItaly@Locale@icu_62@@SAAEBV12@XZ
?getJapan@Locale@icu_62@@SAAEBV12@XZ
?getJapanese@Locale@icu_62@@SAAEBV12@XZ
?getKey@ICUService@icu_62@@QEBAPEAVUObject@2@AEAVICUServiceKey@2@AEAW4UErrorCode@@@Z
?getKey@ICUService@icu_62@@QEBAPEAVUObject@2@AEAVICUServiceKey@2@PEAVUnicodeString@2@PEBVICUServiceFactory@2@AEAW4UErrorCode@@@Z
?getKey@ICUService@icu_62@@UEBAPEAVUObject@2@AEAVICUServiceKey@2@PEAVUnicodeString@2@AEAW4UErrorCode@@@Z
?getKey@ResourceBundle@icu_62@@QEBAPEBDXZ
?getKeyAndValue@ResourceTable@icu_62@@QEBACHAEAPEBDAEAVResourceValue@2@@Z
?getKeywordValue@Locale@icu_62@@QEBAHPEBDPEADHAEAW4UErrorCode@@@Z
?getKorea@Locale@icu_62@@SAAEBV12@XZ
?getKorean@Locale@icu_62@@SAAEBV12@XZ
?getLCID@Locale@icu_62@@QEBAIXZ
?getLanguage@Locale@icu_62@@QEBAPEBDXZ
?getLanguageBreakEngine@RuleBasedBreakIterator@icu_62@@AEAAPEBVLanguageBreakEngine@2@H@Z
?getLastCC@ReorderingBuffer@icu_62@@QEBAEXZ
?getLength@CharacterIterator@icu_62@@QEBAHXZ
?getLength@UnicodeString@icu_62@@MEBAHXZ
?getLimit@ReorderingBuffer@icu_62@@QEAAPEA_SXZ
?getLimitOfLinearMatch@BytesTrieBuilder@icu_62@@EEBAHHHH@Z
?getLimitOfLinearMatch@UCharsTrieBuilder@icu_62@@EEBAHHHH@Z
?getLimitPartIndex@MessagePattern@icu_62@@QEBAHH@Z
?getListFormatInternal@ListFormatter@icu_62@@CAPEBUListFormatInternal@2@AEBVLocale@2@PEBDAEAW4UErrorCode@@@Z
?getLocale@BreakIterator@icu_62@@QEBA?AVLocale@2@W4ULocDataLocaleType@@AEAW4UErrorCode@@@Z
?getLocale@Locale@icu_62@@CAAEBV12@H@Z
?getLocale@LocaleBased@icu_62@@QEBA?AVLocale@2@W4ULocDataLocaleType@@AEAW4UErrorCode@@@Z
?getLocale@ResourceBundle@icu_62@@QEBA?BVLocale@2@W4ULocDataLocaleType@@AEAW4UErrorCode@@@Z
?getLocale@ResourceBundle@icu_62@@QEBAAEBVLocale@2@XZ
?getLocaleCache@Locale@icu_62@@CAPEAV12@XZ
?getLocaleID@BreakIterator@icu_62@@QEBAPEBDW4ULocDataLocaleType@@AEAW4UErrorCode@@@Z
?getLocaleID@LocaleBased@icu_62@@QEBAPEBDW4ULocDataLocaleType@@AEAW4UErrorCode@@@Z
?getMapping@Normalizer2Impl@icu_62@@AEBAPEBGG@Z
?getMaxBranchLinearSubNodeLength@BytesTrieBuilder@icu_62@@EEBAHXZ
?getMaxBranchLinearSubNodeLength@UCharsTrieBuilder@icu_62@@EEBAHXZ
?getMaxLinearMatchLength@BytesTrieBuilder@icu_62@@EEBAHXZ
?getMaxLinearMatchLength@UCharsTrieBuilder@icu_62@@EEBAHXZ
?getMinLinearMatch@BytesTrieBuilder@icu_62@@EEBAHXZ
?getMinLinearMatch@UCharsTrieBuilder@icu_62@@EEBAHXZ
?getNFCImpl@Normalizer2Factory@icu_62@@SAPEBVNormalizer2Impl@2@AEAW4UErrorCode@@@Z
?getNFCInstance@Normalizer2@icu_62@@SAPEBV12@AEAW4UErrorCode@@@Z
?getNFDInstance@Normalizer2@icu_62@@SAPEBV12@AEAW4UErrorCode@@@Z
?getNFKCCasefoldInstance@Normalizer2@icu_62@@SAPEBV12@AEAW4UErrorCode@@@Z
?getNFKCImpl@Normalizer2Factory@icu_62@@SAPEBVNormalizer2Impl@2@AEAW4UErrorCode@@@Z
?getNFKCInstance@Normalizer2@icu_62@@SAPEBV12@AEAW4UErrorCode@@@Z
?getNFKC_CFImpl@Normalizer2Factory@icu_62@@SAPEBVNormalizer2Impl@2@AEAW4UErrorCode@@@Z
?getNFKDInstance@Normalizer2@icu_62@@SAPEBV12@AEAW4UErrorCode@@@Z
?getName@ICUService@icu_62@@QEBAAEAVUnicodeString@2@AEAV32@@Z
?getName@Locale@icu_62@@QEBAPEBDXZ
?getName@ResourceBundle@icu_62@@QEBAPEBDXZ
?getNext@ResourceBundle@icu_62@@QEAA?AV12@AEAW4UErrorCode@@@Z
?getNextBranchBytes@BytesTrie@icu_62@@CAXPEBEHAEAVByteSink@2@@Z
?getNextBranchUChars@UCharsTrie@icu_62@@CAXPEB_SHAEAVAppendable@2@@Z
?getNextBytes@BytesTrie@icu_62@@QEBAHAEAVByteSink@2@@Z
?getNextString@ResourceBundle@icu_62@@QEAA?AVUnicodeString@2@AEAW4UErrorCode@@@Z
?getNextString@ResourceBundle@icu_62@@QEAA?AVUnicodeString@2@PEAPEBDAEAW4UErrorCode@@@Z
?getNextUChars@UCharsTrie@icu_62@@QEBAHAEAVAppendable@2@@Z
?getNoopInstance@Normalizer2Factory@icu_62@@SAPEBVNormalizer2@2@AEAW4UErrorCode@@@Z
?getNorm16@Normalizer2Impl@icu_62@@QEBAGH@Z
?getNumericValue@MessagePattern@icu_62@@QEBANAEBVPart@12@@Z
?getOption@Normalizer@icu_62@@QEBACH@Z
?getPRC@Locale@icu_62@@SAAEBV12@XZ
?getPart@MessagePattern@icu_62@@QEBAAEBVPart@12@H@Z
?getPartType@MessagePattern@icu_62@@QEBA?AW4UMessagePatternPartType@@H@Z
?getPatternIndex@MessagePattern@icu_62@@QEBAHH@Z
?getPatternString@MessagePattern@icu_62@@QEBAAEBVUnicodeString@2@XZ
?getPluralOffset@MessagePattern@icu_62@@QEBANH@Z
?getPreviousTrailCC@Normalizer2Impl@icu_62@@AEBAEPEBE0@Z
?getPreviousTrailCC@Normalizer2Impl@icu_62@@AEBAEPEB_S0@Z
?getRangeCount@UnicodeSet@icu_62@@UEBAHXZ
?getRangeEnd@UnicodeSet@icu_62@@UEBAHH@Z
?getRangeStart@UnicodeSet@icu_62@@UEBAHH@Z
?getRawDecomposition@FilteredNormalizer2@icu_62@@UEBACHAEAVUnicodeString@2@@Z
?getRawDecomposition@Hangul@icu_62@@SAXHQEA_S@Z
?getRawDecomposition@Normalizer2@icu_62@@UEBACHAEAVUnicodeString@2@@Z
?getRawDecomposition@Normalizer2Impl@icu_62@@QEBAPEB_SHQEA_SAEAH@Z
?getRefCount@SharedObject@icu_62@@QEBAHXZ
?getRoot@Locale@icu_62@@SAAEBV12@XZ
?getRuleStatus@BreakIterator@icu_62@@UEBAHXZ
?getRuleStatus@RuleBasedBreakIterator@icu_62@@UEBAHXZ
?getRuleStatusVec@BreakIterator@icu_62@@UEAAHPEAHHAEAW4UErrorCode@@@Z
?getRuleStatusVec@RuleBasedBreakIterator@icu_62@@UEAAHPEAHHAEAW4UErrorCode@@@Z
?getRules@RuleBasedBreakIterator@icu_62@@UEBAAEBVUnicodeString@2@XZ
?getScript@Locale@icu_62@@QEBAPEBDXZ
?getShortLength@UnicodeString@icu_62@@AEBAHXZ
?getSimplifiedChinese@Locale@icu_62@@SAAEBV12@XZ
?getSingleCP@UnicodeSet@icu_62@@CAHAEBVUnicodeString@2@@Z
?getSize@ResourceArray@icu_62@@QEBAHXZ
?getSize@ResourceBundle@icu_62@@QEBAHXZ
?getSize@ResourceTable@icu_62@@QEBAHXZ
?getSource@CanonicalIterator@icu_62@@QEAA?AVUnicodeString@2@XZ
?getStart@ReorderingBuffer@icu_62@@QEAAPEA_SXZ
?getStaticClassID@CanonicalIterator@icu_62@@SAPEAXXZ
?getStaticClassID@DateInterval@icu_62@@SAPEAXXZ
?getStaticClassID@EventListener@icu_62@@SAPEAXXZ
?getStaticClassID@ICUResourceBundleFactory@icu_62@@SAPEAXXZ
?getStaticClassID@ICUServiceKey@icu_62@@SAPEAXXZ
?getStaticClassID@Locale@icu_62@@SAPEAXXZ
?getStaticClassID@LocaleKey@icu_62@@SAPEAXXZ
?getStaticClassID@LocaleKeyFactory@icu_62@@SAPEAXXZ
?getStaticClassID@Normalizer@icu_62@@SAPEAXXZ
?getStaticClassID@ParsePosition@icu_62@@SAPEAXXZ
?getStaticClassID@ResourceBundle@icu_62@@SAPEAXXZ
?getStaticClassID@RuleBasedBreakIterator@icu_62@@SAPEAXXZ
?getStaticClassID@ServiceListener@icu_62@@SAPEAXXZ
?getStaticClassID@SimpleFactory@icu_62@@SAPEAXXZ
?getStaticClassID@SimpleLocaleKeyFactory@icu_62@@SAPEAXXZ
?getStaticClassID@StringCharacterIterator@icu_62@@SAPEAXXZ
?getStaticClassID@UCharCharacterIterator@icu_62@@SAPEAXXZ
?getStaticClassID@UStack@icu_62@@SAPEAXXZ
?getStaticClassID@UStringEnumeration@icu_62@@SAPEAXXZ
?getStaticClassID@UVector32@icu_62@@SAPEAXXZ
?getStaticClassID@UVector64@icu_62@@SAPEAXXZ
?getStaticClassID@UVector@icu_62@@SAPEAXXZ
?getStaticClassID@UnicodeFilter@icu_62@@SAPEAXXZ
?getStaticClassID@UnicodeFunctor@icu_62@@SAPEAXXZ
?getStaticClassID@UnicodeSet@icu_62@@SAPEAXXZ
?getStaticClassID@UnicodeSetIterator@icu_62@@SAPEAXXZ
?getStaticClassID@UnicodeString@icu_62@@SAPEAXXZ
?getString@Iterator@BytesTrie@icu_62@@QEBA?AVStringPiece@3@XZ
?getString@Iterator@UCharsTrie@icu_62@@QEBAAEBVUnicodeString@3@XZ
?getString@ResourceBundle@icu_62@@QEBA?AVUnicodeString@2@AEAW4UErrorCode@@@Z
?getString@UnicodeSet@icu_62@@AEBAPEBVUnicodeString@2@H@Z
?getString@UnicodeSetIterator@icu_62@@QEAAAEBVUnicodeString@2@XZ
?getStringAt@UStringSet@icu_62@@QEBAPEBVUnicodeString@2@H@Z
?getStringCount@UnicodeSet@icu_62@@AEBAHXZ
?getStringEx@ResourceBundle@icu_62@@QEBA?AVUnicodeString@2@HAEAW4UErrorCode@@@Z
?getStringEx@ResourceBundle@icu_62@@QEBA?AVUnicodeString@2@PEBDAEAW4UErrorCode@@@Z
?getSubstring@MessagePattern@icu_62@@QEBA?AVUnicodeString@2@AEBVPart@12@@Z
?getSupportedIDs@ICUResourceBundleFactory@icu_62@@MEBAPEBVHashtable@2@AEAW4UErrorCode@@@Z
?getSupportedIDs@LocaleKeyFactory@icu_62@@MEBAPEBVHashtable@2@AEAW4UErrorCode@@@Z
?getTaiwan@Locale@icu_62@@SAAEBV12@XZ
?getTerminatedBuffer@UnicodeString@icu_62@@QEAAPEB_SXZ
?getText@Normalizer@icu_62@@QEAAXAEAVUnicodeString@2@@Z
?getText@RuleBasedBreakIterator@icu_62@@UEBAAEAVCharacterIterator@2@XZ
?getText@StringCharacterIterator@icu_62@@UEAAXAEAVUnicodeString@2@@Z
?getText@UCharCharacterIterator@icu_62@@UEAAXAEAVUnicodeString@2@@Z
?getTextWithNoArguments@SimpleFormatter@icu_62@@CA?AVUnicodeString@2@PEB_SH@Z
?getTextWithNoArguments@SimpleFormatter@icu_62@@QEBA?AVUnicodeString@2@XZ
?getTimestamp@ICUService@icu_62@@IEBAHXZ
?getToDate@DateInterval@icu_62@@QEBANXZ
?getTraditionalChinese@Locale@icu_62@@SAAEBV12@XZ
?getTrailCCFromCompYesAndZeroCC@Normalizer2Impl@icu_62@@AEBAEG@Z
?getType@BytesDictionaryMatcher@icu_62@@UEBAHXZ
?getType@ResourceBundle@icu_62@@QEBA?AW4UResType@@XZ
?getType@UCharsDictionaryMatcher@icu_62@@UEBAHXZ
?getUInt@ResourceBundle@icu_62@@QEBAIAEAW4UErrorCode@@@Z
?getUK@Locale@icu_62@@SAAEBV12@XZ
?getUMode@Normalizer@icu_62@@QEBA?AW4UNormalizationMode@@XZ
?getUS@Locale@icu_62@@SAAEBV12@XZ
?getUText@RuleBasedBreakIterator@icu_62@@UEBAPEAUUText@@PEAU3@AEAW4UErrorCode@@@Z
?getUnicodeString@ResourceValue@icu_62@@QEBA?AVUnicodeString@2@AEAW4UErrorCode@@@Z
?getValue@BytesTrie@icu_62@@QEBAHXZ
?getValue@Iterator@BytesTrie@icu_62@@QEBAHXZ
?getValue@Iterator@UCharsTrie@icu_62@@QEBAHXZ
?getValue@ResourceArray@icu_62@@QEBACHAEAVResourceValue@2@@Z
?getValue@UCharsTrie@icu_62@@QEBAHXZ
?getVariant@Locale@icu_62@@QEBAPEBDXZ
?getVersion@ResourceBundle@icu_62@@QEBAXQEAE@Z
?getVersionNumber@ResourceBundle@icu_62@@QEBAPEBDXZ
?getVisibleIDMap@ICUService@icu_62@@IEBAPEBVHashtable@2@AEAW4UErrorCode@@@Z
?getVisibleIDs@ICUService@icu_62@@QEBAAEAVUVector@2@AEAV32@AEAW4UErrorCode@@@Z
?getVisibleIDs@ICUService@icu_62@@QEBAAEAVUVector@2@AEAV32@PEBVUnicodeString@2@AEAW4UErrorCode@@@Z
?getWithFallback@ResourceBundle@icu_62@@QEAA?AV12@PEBDAEAW4UErrorCode@@@Z
?geti@Hashtable@icu_62@@QEBAHAEBVUnicodeString@2@@Z
?growArray@Edits@icu_62@@AEAACXZ
?handleCreate@ICUResourceBundleFactory@icu_62@@MEBAPEAVUObject@2@AEBVLocale@2@HPEBVICUService@2@AEAW4UErrorCode@@@Z
?handleCreate@LocaleKeyFactory@icu_62@@MEBAPEAVUObject@2@AEBVLocale@2@HPEBVICUService@2@AEAW4UErrorCode@@@Z
?handleDefault@ICUService@icu_62@@MEBAPEAVUObject@2@AEBVICUServiceKey@2@PEAVUnicodeString@2@AEAW4UErrorCode@@@Z
?handleFailure@ErrorCode@icu_62@@MEBAXXZ
?handleNext@RuleBasedBreakIterator@icu_62@@AEAAHXZ
?handleReplaceBetween@UnicodeString@icu_62@@UEAAXHHAEBV12@@Z
?handleSafePrevious@RuleBasedBreakIterator@icu_62@@AEAAHH@Z
?handleUnreferencedObject@UnifiedCache@icu_62@@UEBAXXZ
?handlesKey@LocaleKeyFactory@icu_62@@MEBACAEBVICUServiceKey@2@AEAW4UErrorCode@@@Z
?hangulLVT@Normalizer2Impl@icu_62@@AEBAGXZ
?hasBoundaryAfter@FilteredNormalizer2@icu_62@@UEBACH@Z
?hasBoundaryBefore@FilteredNormalizer2@icu_62@@UEBACH@Z
?hasChange@Iterator@Edits@icu_62@@QEBACXZ
?hasChanges@Edits@icu_62@@QEBACXZ
?hasCompBoundaryAfter@Normalizer2Impl@icu_62@@AEBACPEBE0C@Z
?hasCompBoundaryAfter@Normalizer2Impl@icu_62@@AEBACPEB_S0C@Z
?hasCompBoundaryAfter@Normalizer2Impl@icu_62@@QEBACHC@Z
?hasCompBoundaryBefore@Normalizer2Impl@icu_62@@AEBACHG@Z
?hasCompBoundaryBefore@Normalizer2Impl@icu_62@@AEBACPEBE0@Z
?hasCompBoundaryBefore@Normalizer2Impl@icu_62@@AEBACPEB_S0@Z
?hasCompBoundaryBefore@Normalizer2Impl@icu_62@@QEBACH@Z
?hasDecompBoundaryAfter@Normalizer2Impl@icu_62@@QEBACH@Z
?hasDecompBoundaryBefore@Normalizer2Impl@icu_62@@QEBACH@Z
?hasErrors@IDNAInfo@icu_62@@QEBACXZ
?hasFCDBoundaryAfter@Normalizer2Impl@icu_62@@QEBACH@Z
?hasFCDBoundaryBefore@Normalizer2Impl@icu_62@@QEBACH@Z
?hasHardReferences@SharedObject@icu_62@@QEBACXZ
?hasMetaData@Replaceable@icu_62@@UEBACXZ
?hasMetaData@UnicodeString@icu_62@@UEBACXZ
?hasMoreChar32Than@UnicodeString@icu_62@@QEBACHHH@Z
?hasNamedArguments@MessagePattern@icu_62@@QEBACXZ
?hasNext@Iterator@BytesTrie@icu_62@@QEBACXZ
?hasNext@Iterator@UCharsTrie@icu_62@@QEBACXZ
?hasNext@ResourceBundle@icu_62@@QEBACXZ
?hasNext@UCharCharacterIterator@icu_62@@UEAACXZ
?hasNumberedArguments@MessagePattern@icu_62@@QEBACXZ
?hasPrevious@UCharCharacterIterator@icu_62@@UEAACXZ
?hasShortLength@UnicodeString@icu_62@@AEBACXZ
?hasUniqueValue@BytesTrie@icu_62@@QEBACAEAH@Z
?hasUniqueValue@UCharsTrie@icu_62@@QEBACAEAH@Z
?hashCode@Locale@icu_62@@QEBAHXZ
?hashCode@MessagePattern@icu_62@@QEBAHXZ
?hashCode@Normalizer@icu_62@@QEBAHXZ
?hashCode@RuleBasedBreakIterator@icu_62@@UEBAHXZ
?hashCode@UCharCharacterIterator@icu_62@@UEBAHXZ
?hashCode@UnicodeSet@icu_62@@UEBAHXZ
?hashCode@UnicodeString@icu_62@@QEBAHXZ
?hashNode@StringTrieBuilder@icu_62@@SACPEBX@Z
?inMessageFormatPattern@MessagePattern@icu_62@@AEAACH@Z
?inTopLevelChoiceMessage@MessagePattern@icu_62@@AEAACHW4UMessagePatternArgType@@@Z
?indexOf@UVector32@icu_62@@QEBAHHH@Z
?indexOf@UVector@icu_62@@AEBAHTUElement@@HC@Z
?indexOf@UVector@icu_62@@QEBAHHH@Z
?indexOf@UVector@icu_62@@QEBAHPEAXH@Z
?indexOf@UnicodeSet@icu_62@@QEBAHH@Z
?indexOf@UnicodeString@icu_62@@QEBAHAEBV12@@Z
?indexOf@UnicodeString@icu_62@@QEBAHAEBV12@H@Z
?indexOf@UnicodeString@icu_62@@QEBAHAEBV12@HH@Z
?indexOf@UnicodeString@icu_62@@QEBAHAEBV12@HHHH@Z
?indexOf@UnicodeString@icu_62@@QEBAHH@Z
?indexOf@UnicodeString@icu_62@@QEBAHHH@Z
?indexOf@UnicodeString@icu_62@@QEBAHHHH@Z
?indexOf@UnicodeString@icu_62@@QEBAHPEB_SHH@Z
?indexOf@UnicodeString@icu_62@@QEBAHPEB_SHHHH@Z
?indexOf@UnicodeString@icu_62@@QEBAHVConstChar16Ptr@2@HHH@Z
?indexOf@UnicodeString@icu_62@@QEBAH_S@Z
?indexOf@UnicodeString@icu_62@@QEBAH_SH@Z
?indexOf@UnicodeString@icu_62@@QEBAH_SHH@Z
?indexOfElementWithNextUnit@BytesTrieBuilder@icu_62@@EEBAHHH_S@Z
?indexOfElementWithNextUnit@UCharsTrieBuilder@icu_62@@EEBAHHH_S@Z
?init@Hashtable@icu_62@@AEAAXP6AHTUElement@@@ZP6AC00@Z2AEAW4UErrorCode@@@Z
?init@Locale@icu_62@@AEAAAEAV12@PEBDC@Z
?init@MessagePattern@icu_62@@AEAACAEAW4UErrorCode@@@Z
?init@Normalizer2Impl@icu_62@@QEAAXPEBHPEBUUTrie2@@PEBGPEBE@Z
?init@Normalizer@icu_62@@AEAAXXZ
?init@ReorderingBuffer@icu_62@@QEAACHAEAW4UErrorCode@@@Z
?init@RuleBasedBreakIterator@icu_62@@AEAAXAEAW4UErrorCode@@@Z
?initBaseName@Locale@icu_62@@AEAAXAEAW4UErrorCode@@@Z
?initLocaleFromName@LocaleUtility@icu_62@@SAAEAVLocale@2@AEBVUnicodeString@2@AEAV32@@Z
?initNameFromLocale@LocaleUtility@icu_62@@SAAEAVUnicodeString@2@AEBVLocale@2@AEAV32@@Z
?initSize@Hashtable@icu_62@@AEAAXP6AHTUElement@@@ZP6AC00@Z2HAEAW4UErrorCode@@@Z
?initializeHash@ListFormatter@icu_62@@CAXAEAW4UErrorCode@@@Z
?insert@ReorderingBuffer@icu_62@@AEAAXHE@Z
?insert@UnicodeString@icu_62@@QEAAAEAV12@HAEBV12@@Z
?insert@UnicodeString@icu_62@@QEAAAEAV12@HAEBV12@HH@Z
?insert@UnicodeString@icu_62@@QEAAAEAV12@HH@Z
?insert@UnicodeString@icu_62@@QEAAAEAV12@HPEB_SHH@Z
?insert@UnicodeString@icu_62@@QEAAAEAV12@HVConstChar16Ptr@2@H@Z
?insert@UnicodeString@icu_62@@QEAAAEAV12@H_S@Z
?insertElementAt@UVector32@icu_62@@QEAAXHHAEAW4UErrorCode@@@Z
?insertElementAt@UVector64@icu_62@@QEAAX_JHAEAW4UErrorCode@@@Z
?insertElementAt@UVector@icu_62@@QEAAXHHAEAW4UErrorCode@@@Z
?insertElementAt@UVector@icu_62@@QEAAXPEAXHAEAW4UErrorCode@@@Z
?internalGetResource@ResourceArray@icu_62@@QEBAIPEBUResourceData@@H@Z
?isAlgorithmicNoNo@Normalizer2Impl@icu_62@@QEBACG@Z
?isArgTypeChar@MessagePattern@icu_62@@CACH@Z
?isBogus@Locale@icu_62@@QEBACXZ
?isBogus@StringPair@icu_62@@QEBACXZ
?isBogus@UnicodeSet@icu_62@@QEBACXZ
?isBogus@UnicodeString@icu_62@@QEBACXZ
?isBoundary@RuleBasedBreakIterator@icu_62@@UEAACH@Z
?isBufferClone@BreakIterator@icu_62@@QEAACXZ
?isBufferWritable@UnicodeString@icu_62@@AEBACXZ
?isCanonSegmentStarter@Normalizer2Impl@icu_62@@QEBACH@Z
?isChoice@MessagePattern@icu_62@@AEAACH@Z
?isCompInert@Normalizer2Impl@icu_62@@QEBACHC@Z
?isCompNo@Normalizer2Impl@icu_62@@QEBACG@Z
?isCompYesAndZeroCC@Normalizer2Impl@icu_62@@AEBACG@Z
?isDecompInert@Normalizer2Impl@icu_62@@QEBACH@Z
?isDecompNoAlgorithmic@Normalizer2Impl@icu_62@@AEBACG@Z
?isDecompYes@Normalizer2Impl@icu_62@@QEBACG@Z
?isDecompYesAndZeroCC@Normalizer2Impl@icu_62@@AEBACG@Z
?isDefault@ICUService@icu_62@@UEBACXZ
?isEmpty@CharString@icu_62@@QEBACXZ
?isEmpty@ReorderingBuffer@icu_62@@QEBACXZ
?isEmpty@UVector32@icu_62@@QEBACXZ
?isEmpty@UVector64@icu_62@@QEBACXZ
?isEmpty@UVector@icu_62@@QEBACXZ
?isEmpty@UnicodeSet@icu_62@@UEBACXZ
?isEmpty@UnicodeString@icu_62@@QEBACXZ
?isFCDInert@Normalizer2Impl@icu_62@@QEBACH@Z
?isFailure@ErrorCode@icu_62@@QEBACXZ
?isFallbackOf@ICUServiceKey@icu_62@@UEBACAEBVUnicodeString@2@@Z
?isFallbackOf@LocaleKey@icu_62@@UEBACAEBVUnicodeString@2@@Z
?isFallbackOf@LocaleUtility@icu_62@@SACAEBVUnicodeString@2@0@Z
?isFrozen@UnicodeSet@icu_62@@QEBACXZ
?isHangul@Hangul@icu_62@@SACH@Z
?isHangulLV@Hangul@icu_62@@SACH@Z
?isHangulLV@Normalizer2Impl@icu_62@@AEBACG@Z
?isHangulLVT@Normalizer2Impl@icu_62@@AEBACG@Z
?isIdentifier@PatternProps@icu_62@@SACPEB_SH@Z
?isInert@FilteredNormalizer2@icu_62@@UEBACH@Z
?isInert@Normalizer2Impl@icu_62@@CACG@Z
?isJamo@Hangul@icu_62@@SACH@Z
?isJamoL@Hangul@icu_62@@SACH@Z
?isJamoL@Normalizer2Impl@icu_62@@CACG@Z
?isJamoT@Hangul@icu_62@@SACH@Z
?isJamoV@Hangul@icu_62@@SACH@Z
?isJamoVT@Normalizer2Impl@icu_62@@CACG@Z
?isMaybe@Normalizer2Impl@icu_62@@AEBACG@Z
?isMaybeOrNonZeroCC@Normalizer2Impl@icu_62@@AEBACG@Z
?isMostDecompYesAndZeroCC@Normalizer2Impl@icu_62@@AEBACG@Z
?isNormalized@FilteredNormalizer2@icu_62@@UEBACAEBVUnicodeString@2@AEAW4UErrorCode@@@Z
?isNormalized@Normalizer@icu_62@@SACAEBVUnicodeString@2@W4UNormalizationMode@@AEAW4UErrorCode@@@Z
?isNormalized@Normalizer@icu_62@@SACAEBVUnicodeString@2@W4UNormalizationMode@@HAEAW4UErrorCode@@@Z
?isNormalizedUTF8@FilteredNormalizer2@icu_62@@UEBACVStringPiece@2@AEAW4UErrorCode@@@Z
?isNormalizedUTF8@Normalizer2@icu_62@@UEBACVStringPiece@2@AEAW4UErrorCode@@@Z
?isOrdinal@MessagePattern@icu_62@@AEAACH@Z
?isPlural@MessagePattern@icu_62@@AEAACH@Z
?isRightToLeft@Locale@icu_62@@QEBACXZ
?isSelect@MessagePattern@icu_62@@AEAACH@Z
?isString@UnicodeSetIterator@icu_62@@QEBACXZ
?isSuccess@ErrorCode@icu_62@@QEBACXZ
?isSyntax@PatternProps@icu_62@@SACH@Z
?isSyntaxOrWhiteSpace@PatternProps@icu_62@@SACH@Z
?isTrailCC01ForCompBoundaryAfter@Normalizer2Impl@icu_62@@AEBACG@Z
?isTransitionalDifferent@IDNAInfo@icu_62@@QEBACXZ
?isUnprintable@ICU_Utility@icu_62@@SACH@Z
?isWhiteSpace@PatternProps@icu_62@@SACH@Z
?isWritable@UnicodeString@icu_62@@AEBACXZ
?jdkAposMode@MessageImpl@icu_62@@SACAEBVMessagePattern@2@@Z
?jumpByDelta@BytesTrie@icu_62@@CAPEBEPEBE@Z
?jumpByDelta@UCharsTrie@icu_62@@CAPEB_SPEB_S@Z
?kDatasetGraphKey@DatasetBase@data@tensorflow@@2QBDB
?kDatasetGraphOutputNodeKey@DatasetBase@data@tensorflow@@2QBDB
?kFiveByteDeltaLead@BytesTrie@icu_62@@0HB
?kFiveByteValueLead@BytesTrie@icu_62@@0HB
?kFourByteDeltaLead@BytesTrie@icu_62@@0HB
?kFourByteValueLead@BytesTrie@icu_62@@0HB
?kMaxBranchLinearSubNodeLength@BytesTrie@icu_62@@0HB
?kMaxBranchLinearSubNodeLength@StringTrieBuilder@icu_62@@1HB
?kMaxBranchLinearSubNodeLength@UCharsTrie@icu_62@@0HB
?kMaxLinearMatchLength@BytesTrie@icu_62@@0HB
?kMaxLinearMatchLength@UCharsTrie@icu_62@@0HB
?kMaxOneByteDelta@BytesTrie@icu_62@@0HB
?kMaxOneByteValue@BytesTrie@icu_62@@0HB
?kMaxOneUnitDelta@UCharsTrie@icu_62@@0HB
?kMaxOneUnitNodeValue@UCharsTrie@icu_62@@0HB
?kMaxOneUnitValue@UCharsTrie@icu_62@@0HB
?kMaxSplitBranchLevels@StringTrieBuilder@icu_62@@1HB
?kMaxThreeByteDelta@BytesTrie@icu_62@@0HB
?kMaxThreeByteValue@BytesTrie@icu_62@@0HB
?kMaxTwoByteDelta@BytesTrie@icu_62@@0HB
?kMaxTwoByteValue@BytesTrie@icu_62@@0HB
?kMaxTwoUnitDelta@UCharsTrie@icu_62@@0HB
?kMaxTwoUnitNodeValue@UCharsTrie@icu_62@@0HB
?kMaxTwoUnitValue@UCharsTrie@icu_62@@0HB
?kMinLinearMatch@BytesTrie@icu_62@@0HB
?kMinLinearMatch@UCharsTrie@icu_62@@0HB
?kMinOneByteValueLead@BytesTrie@icu_62@@0HB
?kMinThreeByteDeltaLead@BytesTrie@icu_62@@0HB
?kMinThreeByteValueLead@BytesTrie@icu_62@@0HB
?kMinTwoByteDeltaLead@BytesTrie@icu_62@@0HB
?kMinTwoByteValueLead@BytesTrie@icu_62@@0HB
?kMinTwoUnitDeltaLead@UCharsTrie@icu_62@@0HB
?kMinTwoUnitNodeValueLead@UCharsTrie@icu_62@@0HB
?kMinTwoUnitValueLead@UCharsTrie@icu_62@@0HB
?kMinValueLead@BytesTrie@icu_62@@0HB
?kMinValueLead@UCharsTrie@icu_62@@0HB
?kNodeTypeMask@UCharsTrie@icu_62@@0HB
?kThreeUnitDeltaLead@UCharsTrie@icu_62@@0HB
?kThreeUnitNodeValueLead@UCharsTrie@icu_62@@0HB
?kThreeUnitValueLead@UCharsTrie@icu_62@@0HB
?kValueIsFinal@BytesTrie@icu_62@@0HB
?kValueIsFinal@UCharsTrie@icu_62@@0HB
?keyCount@UnifiedCache@icu_62@@QEBAHXZ
?kind@LocaleKey@icu_62@@UEBAHXZ
?labelToASCII_UTF8@IDNA@icu_62@@UEBAXVStringPiece@2@AEAVByteSink@2@AEAVIDNAInfo@2@AEAW4UErrorCode@@@Z
?labelToUnicodeUTF8@IDNA@icu_62@@UEBAXVStringPiece@2@AEAVByteSink@2@AEAVIDNAInfo@2@AEAW4UErrorCode@@@Z
?last32@UCharCharacterIterator@icu_62@@UEAAHXZ
?last@Normalizer@icu_62@@QEAAHXZ
?last@RuleBasedBreakIterator@icu_62@@UEAAHXZ
?last@UCharCharacterIterator@icu_62@@UEAA_SXZ
?lastElement@UVector@icu_62@@QEBAPEAXXZ
?lastElementi@UVector32@icu_62@@QEBAHXZ
?lastElementi@UVector64@icu_62@@QEBA_JXZ
?lastElementi@UVector@icu_62@@QEBAHXZ
?lastIndexOf@CharString@icu_62@@QEBAHD@Z
?lastIndexOf@UnicodeString@icu_62@@QEBAHAEBV12@@Z
?lastIndexOf@UnicodeString@icu_62@@QEBAHAEBV12@H@Z
?lastIndexOf@UnicodeString@icu_62@@QEBAHAEBV12@HH@Z
?lastIndexOf@UnicodeString@icu_62@@QEBAHAEBV12@HHHH@Z
?lastIndexOf@UnicodeString@icu_62@@QEBAHH@Z
?lastIndexOf@UnicodeString@icu_62@@QEBAHHH@Z
?lastIndexOf@UnicodeString@icu_62@@QEBAHHHH@Z
?lastIndexOf@UnicodeString@icu_62@@QEBAHPEB_SHH@Z
?lastIndexOf@UnicodeString@icu_62@@QEBAHPEB_SHHHH@Z
?lastIndexOf@UnicodeString@icu_62@@QEBAHVConstChar16Ptr@2@HHH@Z
?lastIndexOf@UnicodeString@icu_62@@QEBAH_S@Z
?lastIndexOf@UnicodeString@icu_62@@QEBAH_SH@Z
?lastIndexOf@UnicodeString@icu_62@@QEBAH_SHH@Z
?lastUnit@Edits@icu_62@@AEBAHXZ
?length@CharString@icu_62@@QEBAHXZ
?length@ReorderingBuffer@icu_62@@QEBAHXZ
?length@Replaceable@icu_62@@QEBAHXZ
?length@StringPiece@icu_62@@QEBAHXZ
?length@UnicodeString@icu_62@@QEBAHXZ
?lengthDelta@Edits@icu_62@@QEBAHXZ
?loadListFormatInternal@ListFormatter@icu_62@@CAPEAUListFormatInternal@2@AEBVLocale@2@PEBDAEAW4UErrorCode@@@Z
?loadRange@UnicodeSetIterator@icu_62@@MEAAXH@Z
?makeBogusString@ICU_Utility@icu_62@@SA?AVUnicodeString@2@XZ
?makeBranchSubNode@StringTrieBuilder@icu_62@@IEAAPEAVNode@12@HHHHAEAW4UErrorCode@@@Z
?makeCanonIterDataFromNorm16@Normalizer2Impl@icu_62@@AEBAXHHGAEAUCanonIterData@2@AEAW4UErrorCode@@@Z
?makeFCD@Normalizer2Impl@icu_62@@QEBAPEB_SPEB_S0PEAVReorderingBuffer@2@AEAW4UErrorCode@@@Z
?makeFCDAndAppend@Normalizer2Impl@icu_62@@QEBAXPEB_S0CAEAVUnicodeString@2@AEAVReorderingBuffer@2@AEAW4UErrorCode@@@Z
?makeInstance@BreakIterator@icu_62@@CAPEAV12@AEBVLocale@2@HAEAW4UErrorCode@@@Z
?makeNode@StringTrieBuilder@icu_62@@IEAAPEAVNode@12@HHHAEAW4UErrorCode@@@Z
?mapAlgorithmic@Normalizer2Impl@icu_62@@AEBAHHG@Z
?matchNodesCanHaveValues@BytesTrieBuilder@icu_62@@EEBACXZ
?matchNodesCanHaveValues@UCharsTrieBuilder@icu_62@@EEBACXZ
?matchRest@UnicodeSet@icu_62@@CAHAEBVReplaceable@2@HHAEBVUnicodeString@2@@Z
?matches@BytesDictionaryMatcher@icu_62@@UEBAHPEAUUText@@HHPEAH111@Z
?matches@UCharsDictionaryMatcher@icu_62@@UEBAHPEAUUText@@HHPEAH111@Z
?matches@UnicodeFilter@icu_62@@UEAA?AW4UMatchDegree@2@AEBVReplaceable@2@AEAHHC@Z
?matches@UnicodeSet@icu_62@@UEAA?AW4UMatchDegree@2@AEBVReplaceable@2@AEAHHC@Z
?matchesIndexValue@UnicodeSet@icu_62@@EEBACE@Z
?mergeAndAppend@Edits@icu_62@@QEAAAEAV12@AEBV12@0AEAW4UErrorCode@@@Z
?move32@UCharCharacterIterator@icu_62@@UEAAHHW4EOrigin@CharacterIterator@2@@Z
?move@UCharCharacterIterator@icu_62@@UEAAHHW4EOrigin@CharacterIterator@2@@Z
?moveArray@Edits@icu_62@@AEAAAEAV12@AEAV12@@Z
?moveFrom@UnicodeString@icu_62@@QEAAAEAV12@AEAV12@@Z
?moveIndex32@UnicodeString@icu_62@@QEBAHHH@Z
?nameToASCII_UTF8@IDNA@icu_62@@UEBAXVStringPiece@2@AEAVByteSink@2@AEAVIDNAInfo@2@AEAW4UErrorCode@@@Z
?nameToUnicodeUTF8@IDNA@icu_62@@UEBAXVStringPiece@2@AEAVByteSink@2@AEAVIDNAInfo@2@AEAW4UErrorCode@@@Z
?newLength@Iterator@Edits@icu_62@@QEBAHXZ
?next32@UCharCharacterIterator@icu_62@@UEAAHXZ
?next32PostInc@UCharCharacterIterator@icu_62@@UEAAHXZ
?next@BytesTrie@icu_62@@QEAA?AW4UStringTrieResult@@H@Z
?next@BytesTrie@icu_62@@QEAA?AW4UStringTrieResult@@PEBDH@Z
?next@CanonicalIterator@icu_62@@QEAA?AVUnicodeString@2@XZ
?next@FullCaseFoldingIterator@icu_62@@QEAAHAEAVUnicodeString@2@@Z
?next@Iterator@BytesTrie@icu_62@@QEAACAEAW4UErrorCode@@@Z
?next@Iterator@Edits@icu_62@@AEAACCAEAW4UErrorCode@@@Z
?next@Iterator@Edits@icu_62@@QEAACAEAW4UErrorCode@@@Z
?next@Iterator@UCharsTrie@icu_62@@QEAACAEAW4UErrorCode@@@Z
?next@Normalizer@icu_62@@QEAAHXZ
?next@RuleBasedBreakIterator@icu_62@@UEAAHH@Z
?next@RuleBasedBreakIterator@icu_62@@UEAAHXZ
?next@StringEnumeration@icu_62@@UEAAPEBDPEAHAEAW4UErrorCode@@@Z
?next@UCharCharacterIterator@icu_62@@UEAA_SXZ
?next@UCharsTrie@icu_62@@QEAA?AW4UStringTrieResult@@H@Z
?next@UCharsTrie@icu_62@@QEAA?AW4UStringTrieResult@@VConstChar16Ptr@2@H@Z
?next@UStringEnumeration@icu_62@@UEAAPEBDPEAHAEAW4UErrorCode@@@Z
?next@UnicodeSetIterator@icu_62@@QEAACXZ
?nextElement@Hashtable@icu_62@@QEBAPEBUUHashElement@@AEAH@Z
?nextFCD16@Normalizer2Impl@icu_62@@QEBAGAEAPEB_SPEB_S@Z
?nextForCodePoint@UCharsTrie@icu_62@@QEAA?AW4UStringTrieResult@@H@Z
?nextImpl@BytesTrie@icu_62@@AEAA?AW4UStringTrieResult@@PEBEH@Z
?nextImpl@UCharsTrie@icu_62@@AEAA?AW4UStringTrieResult@@PEB_SH@Z
?nextNormalize@Normalizer@icu_62@@AEAACXZ
?nextPostInc@UCharCharacterIterator@icu_62@@UEAA_SXZ
?nextRange@UnicodeSetIterator@icu_62@@QEAACXZ
?noHardReferences@SharedObject@icu_62@@QEBACXZ
?noNext@Iterator@Edits@icu_62@@AEAACXZ
?norm16HasCompBoundaryAfter@Normalizer2Impl@icu_62@@AEBACGC@Z
?norm16HasCompBoundaryBefore@Normalizer2Impl@icu_62@@AEBACG@Z
?norm16HasDecompBoundaryAfter@Normalizer2Impl@icu_62@@QEBACG@Z
?norm16HasDecompBoundaryBefore@Normalizer2Impl@icu_62@@QEBACG@Z
?normalize@FilteredNormalizer2@icu_62@@AEBAAEAVUnicodeString@2@AEBV32@AEAV32@W4USetSpanCondition@@AEAW4UErrorCode@@@Z
?normalize@FilteredNormalizer2@icu_62@@UEBAAEAVUnicodeString@2@AEBV32@AEAV32@AEAW4UErrorCode@@@Z
?normalize@Normalizer2@icu_62@@QEBA?AVUnicodeString@2@AEBV32@AEAW4UErrorCode@@@Z
?normalize@Normalizer@icu_62@@SAXAEBVUnicodeString@2@W4UNormalizationMode@@HAEAV32@AEAW4UErrorCode@@@Z
?normalizeSecondAndAppend@FilteredNormalizer2@icu_62@@AEBAAEAVUnicodeString@2@AEAV32@AEBV32@CAEAW4UErrorCode@@@Z
?normalizeSecondAndAppend@FilteredNormalizer2@icu_62@@UEBAAEAVUnicodeString@2@AEAV32@AEBV32@AEAW4UErrorCode@@@Z
?normalizeUTF8@FilteredNormalizer2@icu_62@@AEBAXIPEBDHAEAVByteSink@2@PEAVEdits@2@W4USetSpanCondition@@AEAW4UErrorCode@@@Z
?normalizeUTF8@FilteredNormalizer2@icu_62@@UEBAXIVStringPiece@2@AEAVByteSink@2@PEAVEdits@2@AEAW4UErrorCode@@@Z
?normalizeUTF8@Normalizer2@icu_62@@UEBAXIVStringPiece@2@AEAVByteSink@2@PEAVEdits@2@AEAW4UErrorCode@@@Z
?notifyChanged@ICUNotifier@icu_62@@UEAAXXZ
?notifyListener@ICUService@icu_62@@MEBAXAEAVEventListener@2@@Z
?npos@StringPiece@icu_62@@2HB
?numberOfChanges@Edits@icu_62@@QEBAHXZ
?oldLength@Iterator@Edits@icu_62@@QEBAHXZ
?orphanElementAt@UVector@icu_62@@QEAAPEAXH@Z
?orphanOrClone@?$MaybeStackArray@D$0CI@@icu_62@@QEAAPEADHAEAH@Z
?padLeading@UnicodeString@icu_62@@QEAACH_S@Z
?padTrailing@UnicodeString@icu_62@@QEAACH_S@Z
?parse@MessagePattern@icu_62@@QEAAAEAV12@AEBVUnicodeString@2@PEAUUParseError@@AEAW4UErrorCode@@@Z
?parseArg@MessagePattern@icu_62@@AEAAHHHHPEAUUParseError@@AEAW4UErrorCode@@@Z
?parseArgNumber@MessagePattern@icu_62@@AEAAHHH@Z
?parseArgNumber@MessagePattern@icu_62@@CAHAEBVUnicodeString@2@HH@Z
?parseChar@ICU_Utility@icu_62@@SACAEBVUnicodeString@2@AEAH_S@Z
?parseChoiceStyle@MessagePattern@icu_62@@AEAAHHHPEAUUParseError@@AEAW4UErrorCode@@@Z
?parseChoiceStyle@MessagePattern@icu_62@@QEAAAEAV12@AEBVUnicodeString@2@PEAUUParseError@@AEAW4UErrorCode@@@Z
?parseDouble@MessagePattern@icu_62@@AEAAXHHCPEAUUParseError@@AEAW4UErrorCode@@@Z
?parseInteger@ICU_Utility@icu_62@@SAHAEBVUnicodeString@2@AEAHH@Z
?parseMessage@MessagePattern@icu_62@@AEAAHHHHW4UMessagePatternArgType@@PEAUUParseError@@AEAW4UErrorCode@@@Z
?parseNumber@ICU_Utility@icu_62@@SAHAEBVUnicodeString@2@AEAHC@Z
?parsePattern@ICU_Utility@icu_62@@SAHAEBVUnicodeString@2@AEBVReplaceable@2@HH@Z
?parsePattern@ICU_Utility@icu_62@@SAHAEBVUnicodeString@2@HH0PEAH@Z
?parsePluralOrSelectStyle@MessagePattern@icu_62@@AEAAHW4UMessagePatternArgType@@HHPEAUUParseError@@AEAW4UErrorCode@@@Z
?parsePluralStyle@MessagePattern@icu_62@@QEAAAEAV12@AEBVUnicodeString@2@PEAUUParseError@@AEAW4UErrorCode@@@Z
?parsePrefix@ICUServiceKey@icu_62@@SAAEAVUnicodeString@2@AEAV32@@Z
?parseSelectStyle@MessagePattern@icu_62@@QEAAAEAV12@AEBVUnicodeString@2@PEAUUParseError@@AEAW4UErrorCode@@@Z
?parseSimpleStyle@MessagePattern@icu_62@@AEAAHHPEAUUParseError@@AEAW4UErrorCode@@@Z
?parseSuffix@ICUServiceKey@icu_62@@SAAEAVUnicodeString@2@AEAV32@@Z
?parseUnicodeIdentifier@ICU_Utility@icu_62@@SA?AVUnicodeString@2@AEBV32@AEAH@Z
?partSubstringMatches@MessagePattern@icu_62@@QEBACAEBVPart@12@AEBVUnicodeString@2@@Z
?peek@UStack@icu_62@@QEBAPEAXXZ
?peeki@UStack@icu_62@@QEBAHXZ
?peeki@UVector32@icu_62@@QEBAHXZ
?permute@CanonicalIterator@icu_62@@SAXAEAVUnicodeString@2@CPEAVHashtable@2@AEAW4UErrorCode@@@Z
?pinIndex@UnicodeString@icu_62@@AEBAXAEAH@Z
?pinIndices@UnicodeString@icu_62@@AEBAXAEAH0@Z
?pop@UStack@icu_62@@QEAAPEAXXZ
?popFrame@UVector32@icu_62@@QEAAPEAHH@Z
?popFrame@UVector64@icu_62@@QEAAPEA_JH@Z
?popi@UStack@icu_62@@QEAAHXZ
?popi@UVector32@icu_62@@QEAAHXZ
?popi@UVector64@icu_62@@QEAA_JXZ
?postParse@MessagePattern@icu_62@@AEAAXXZ
?preParse@MessagePattern@icu_62@@AEAAXAEBVUnicodeString@2@PEAUUParseError@@AEAW4UErrorCode@@@Z
?preceding@RuleBasedBreakIterator@icu_62@@UEAAHH@Z
?prefix@ICUServiceKey@icu_62@@UEBAAEAVUnicodeString@2@AEAV32@@Z
?prefix@LocaleKey@icu_62@@UEBAAEAVUnicodeString@2@AEAV32@@Z
?previous32@UCharCharacterIterator@icu_62@@UEAAHXZ
?previous@Iterator@Edits@icu_62@@AEAACAEAW4UErrorCode@@@Z
?previous@Normalizer@icu_62@@QEAAHXZ
?previous@RuleBasedBreakIterator@icu_62@@UEAAHXZ
?previous@UCharCharacterIterator@icu_62@@UEAA_SXZ
?previousCC@ReorderingBuffer@icu_62@@AEAAEXZ
?previousFCD16@Normalizer2Impl@icu_62@@QEBAGPEB_SAEAPEB_S@Z
?previousNormalize@Normalizer@icu_62@@AEAACXZ
?push@UStack@icu_62@@QEAAHHAEAW4UErrorCode@@@Z
?push@UStack@icu_62@@QEAAPEAXPEAXAEAW4UErrorCode@@@Z
?push@UVector32@icu_62@@QEAAHHAEAW4UErrorCode@@@Z
?push@UVector64@icu_62@@QEAA_J_JAEAW4UErrorCode@@@Z
?put@Hashtable@icu_62@@QEAAPEAXAEBVUnicodeString@2@PEAXAEAW4UErrorCode@@@Z
?puti@Hashtable@icu_62@@QEAAHAEBVUnicodeString@2@HAEAW4UErrorCode@@@Z
?quickCheck@FilteredNormalizer2@icu_62@@UEBA?AW4UNormalizationCheckResult@@AEBVUnicodeString@2@AEAW4UErrorCode@@@Z
?quickCheck@Normalizer@icu_62@@SA?AW4UNormalizationCheckResult@@AEBVUnicodeString@2@W4UNormalizationMode@@AEAW4UErrorCode@@@Z
?quickCheck@Normalizer@icu_62@@SA?AW4UNormalizationCheckResult@@AEBVUnicodeString@2@W4UNormalizationMode@@HAEAW4UErrorCode@@@Z
?reInitializeFactories@ICUService@icu_62@@MEAAXXZ
?readLength@Iterator@Edits@icu_62@@AEAAHH@Z
?readNodeValue@UCharsTrie@icu_62@@CAHPEB_SH@Z
?readValue@BytesTrie@icu_62@@CAHPEBEH@Z
?readValue@UCharsTrie@icu_62@@CAHPEB_SH@Z
?recompose@Normalizer2Impl@icu_62@@AEBAXAEAVReorderingBuffer@2@HC@Z
?refCount@UnicodeString@icu_62@@AEBAHXZ
?refreshInputText@RuleBasedBreakIterator@icu_62@@UEAAAEAV12@PEAUUText@@AEAW4UErrorCode@@@Z
?registerFactory@ICUService@icu_62@@UEAAPEBXPEAVICUServiceFactory@2@AEAW4UErrorCode@@@Z
?registerFinalValue@StringTrieBuilder@icu_62@@IEAAPEAVNode@12@HAEAW4UErrorCode@@@Z
?registerInstance@BreakIterator@icu_62@@SAPEBXPEAV12@AEBVLocale@2@W4UBreakIteratorType@@AEAW4UErrorCode@@@Z
?registerInstance@ICULocaleService@icu_62@@UEAAPEBXPEAVUObject@2@AEBVLocale@2@AEAW4UErrorCode@@@Z
?registerInstance@ICULocaleService@icu_62@@UEAAPEBXPEAVUObject@2@AEBVLocale@2@HAEAW4UErrorCode@@@Z
?registerInstance@ICULocaleService@icu_62@@UEAAPEBXPEAVUObject@2@AEBVLocale@2@HHAEAW4UErrorCode@@@Z
?registerInstance@ICULocaleService@icu_62@@UEAAPEBXPEAVUObject@2@AEBVUnicodeString@2@CAEAW4UErrorCode@@@Z
?registerInstance@ICUService@icu_62@@QEAAPEBXPEAVUObject@2@AEBVUnicodeString@2@AEAW4UErrorCode@@@Z
?registerInstance@ICUService@icu_62@@UEAAPEBXPEAVUObject@2@AEBVUnicodeString@2@CAEAW4UErrorCode@@@Z
?registerNode@StringTrieBuilder@icu_62@@IEAAPEAVNode@12@PEAV312@AEAW4UErrorCode@@@Z
?releaseArray@?$MaybeStackArray@D$0CI@@icu_62@@AEAAXXZ
?releaseArray@Edits@icu_62@@AEAAXXZ
?releaseArray@UnicodeString@icu_62@@AEAAXXZ
?releaseBuffer@UnicodeString@icu_62@@QEAAXH@Z
?releasePattern@UnicodeSet@icu_62@@AEAAXXZ
?remove@Hashtable@icu_62@@QEAAPEAXAEBVUnicodeString@2@@Z
?remove@ReorderingBuffer@icu_62@@QEAAXXZ
?remove@UStringSet@icu_62@@QEAACAEBVUnicodeString@2@AEAW4UErrorCode@@@Z
?remove@UnicodeSet@icu_62@@QEAAAEAV12@AEBVUnicodeString@2@@Z
?remove@UnicodeSet@icu_62@@QEAAAEAV12@H@Z
?remove@UnicodeSet@icu_62@@UEAAAEAV12@HH@Z
?remove@UnicodeString@icu_62@@QEAAAEAV12@HH@Z
?remove@UnicodeString@icu_62@@QEAAAEAV12@XZ
?removeAll@Hashtable@icu_62@@QEAAXXZ
?removeAll@UVector32@icu_62@@QEAACAEBV12@@Z
?removeAll@UVector@icu_62@@QEAACAEBV12@@Z
?removeAll@UnicodeSet@icu_62@@QEAAAEAV12@AEBVUnicodeString@2@@Z
?removeAll@UnicodeSet@icu_62@@UEAAAEAV12@AEBV12@@Z
?removeAllElements@UVector32@icu_62@@QEAAXXZ
?removeAllElements@UVector64@icu_62@@QEAAXXZ
?removeAllElements@UVector@icu_62@@QEAAXXZ
?removeAllStrings@UnicodeSet@icu_62@@UEAAAEAV12@XZ
?removeBetween@UnicodeString@icu_62@@QEAAAEAV12@HH@Z
?removeElement@UVector@icu_62@@QEAACPEAX@Z
?removeElementAt@UVector32@icu_62@@QEAAXH@Z
?removeElementAt@UVector@icu_62@@QEAAXH@Z
?removeHardRef@UnifiedCache@icu_62@@AEBAHPEBVSharedObject@2@@Z
?removeListener@ICUNotifier@icu_62@@UEAAXPEBVEventListener@2@AEAW4UErrorCode@@@Z
?removeRef@SharedObject@icu_62@@QEBAXXZ
?removeRef@UnicodeString@icu_62@@AEAAHXZ
?removeSoftRef@UnifiedCache@icu_62@@AEBAXPEBVSharedObject@2@@Z
?removeSuffix@ReorderingBuffer@icu_62@@QEAAXH@Z
?remove_prefix@StringPiece@icu_62@@QEAAXH@Z
?remove_suffix@StringPiece@icu_62@@QEAAXH@Z
?removei@Hashtable@icu_62@@QEAAHAEBVUnicodeString@2@@Z
?replace@UnicodeString@icu_62@@QEAAAEAV12@HHAEBV12@@Z
?replace@UnicodeString@icu_62@@QEAAAEAV12@HHAEBV12@HH@Z
?replace@UnicodeString@icu_62@@QEAAAEAV12@HHH@Z
?replace@UnicodeString@icu_62@@QEAAAEAV12@HHPEB_SHH@Z
?replace@UnicodeString@icu_62@@QEAAAEAV12@HHVConstChar16Ptr@2@H@Z
?replace@UnicodeString@icu_62@@QEAAAEAV12@HH_S@Z
?replaceBetween@UnicodeString@icu_62@@QEAAAEAV12@HHAEBV12@@Z
?replaceBetween@UnicodeString@icu_62@@QEAAAEAV12@HHAEBV12@HH@Z
?replacementIndex@Iterator@Edits@icu_62@@QEBAHXZ
?resemblesPattern@UnicodeSet@icu_62@@SACAEBVUnicodeString@2@H@Z
?resemblesPropertyPattern@UnicodeSet@icu_62@@CACAEAVRuleCharacterIterator@2@H@Z
?resemblesPropertyPattern@UnicodeSet@icu_62@@CACAEBVUnicodeString@2@H@Z
?reserveAppendCapacity@Appendable@icu_62@@UEAACH@Z
?reserveAppendCapacity@UnicodeStringAppendable@icu_62@@UEAACH@Z
?reserveBlock@UVector32@icu_62@@QEAAPEAHHAEAW4UErrorCode@@@Z
?reserveBlock@UVector64@icu_62@@QEAAPEA_JHAEAW4UErrorCode@@@Z
?reset@BytesTrie@icu_62@@QEAAAEAV12@XZ
?reset@CanonicalIterator@icu_62@@QEAAXXZ
?reset@Edits@icu_62@@QEAAXXZ
?reset@ErrorCode@icu_62@@QEAA?AW4UErrorCode@@XZ
?reset@ICUService@icu_62@@UEAAXXZ
?reset@IDNAInfo@icu_62@@AEAAXXZ
?reset@Iterator@BytesTrie@icu_62@@QEAAAEAV123@XZ
?reset@Iterator@UCharsTrie@icu_62@@QEAAAEAV123@XZ
?reset@Normalizer@icu_62@@QEAAXXZ
?reset@UCharsTrie@icu_62@@QEAAAEAV12@XZ
?reset@UStringEnumeration@icu_62@@UEAAXAEAW4UErrorCode@@@Z
?reset@UnicodeSetIterator@icu_62@@QEAAXAEBVUnicodeSet@2@@Z
?reset@UnicodeSetIterator@icu_62@@QEAAXXZ
?resetIterator@ResourceBundle@icu_62@@QEAAXXZ
?resetToStackArray@?$MaybeStackArray@D$0CI@@icu_62@@AEAAXXZ
?resetToState@BytesTrie@icu_62@@QEAAAEAV12@AEBVState@12@@Z
?resetToState@UCharsTrie@icu_62@@QEAAAEAV12@AEBVState@12@@Z
?resize@?$MaybeStackArray@D$0CI@@icu_62@@QEAAPEADHH@Z
?resize@ReorderingBuffer@icu_62@@AEAACHAEAW4UErrorCode@@@Z
?retain@UnicodeSet@icu_62@@AEAAXPEBHHC@Z
?retain@UnicodeSet@icu_62@@QEAAAEAV12@H@Z
?retain@UnicodeSet@icu_62@@UEAAAEAV12@HH@Z
?retainAll@UVector32@icu_62@@QEAACAEBV12@@Z
?retainAll@UVector@icu_62@@QEAACAEBV12@@Z
?retainAll@UnicodeSet@icu_62@@QEAAAEAV12@AEBVUnicodeString@2@@Z
?retainAll@UnicodeSet@icu_62@@UEAAAEAV12@AEBV12@@Z
?retainBetween@UnicodeString@icu_62@@QEAAAEAV12@HH@Z
?reverse@UnicodeString@icu_62@@QEAAAEAV12@HH@Z
?reverse@UnicodeString@icu_62@@QEAAAEAV12@XZ
?saveState@BytesTrie@icu_62@@QEBAAEBV12@AEAVState@12@@Z
?saveState@UCharsTrie@icu_62@@QEBAAEBV12@AEAVState@12@@Z
?search@UStack@icu_62@@QEBAHPEAX@Z
?serialize@UnicodeSet@icu_62@@QEBAHPEAGHAEAW4UErrorCode@@@Z
?set@ErrorCode@icu_62@@QEAAXW4UErrorCode@@@Z
?set@StringPiece@icu_62@@QEAAXPEBD@Z
?set@StringPiece@icu_62@@QEAAXPEBDH@Z
?set@UnicodeSet@icu_62@@QEAAAEAV12@HH@Z
?setArray@UnicodeString@icu_62@@AEAAXPEA_SHH@Z
?setCharAt@UnicodeString@icu_62@@QEAAAEAV12@H_S@Z
?setChars@StringEnumeration@icu_62@@IEAAPEAVUnicodeString@2@PEBDHAEAW4UErrorCode@@@Z
?setComparer@UVector@icu_62@@QEAAP6ACTUElement@@0@ZP6AC00@Z@Z
?setData@UnicodeFilter@icu_62@@UEAAXPEBVTransliterationRuleData@2@@Z
?setDefault@Locale@icu_62@@SAXAEBV12@AEAW4UErrorCode@@@Z
?setDeleter@UVector@icu_62@@QEAAP6AXPEAX@ZP6AX0@Z@Z
?setElementAt@UVector32@icu_62@@QEAAXHH@Z
?setElementAt@UVector64@icu_62@@QEAAX_JH@Z
?setElementAt@UVector@icu_62@@QEAAXHH@Z
?setElementAt@UVector@icu_62@@QEAAXPEAXH@Z
?setErrorIndex@ParsePosition@icu_62@@QEAAXH@Z
?setEvictionPolicy@UnifiedCache@icu_62@@QEAAXHHAEAW4UErrorCode@@@Z
?setFromPOSIXID@Locale@icu_62@@IEAAXPEBD@Z
?setIndex32@UCharCharacterIterator@icu_62@@UEAAHH@Z
?setIndex@ParsePosition@icu_62@@QEAAXH@Z
?setIndex@UCharCharacterIterator@icu_62@@UEAA_SH@Z
?setIndexOnly@Normalizer@icu_62@@QEAAXH@Z
?setIterator@ReorderingBuffer@icu_62@@AEAAXXZ
?setKeyComparator@Hashtable@icu_62@@QEAAP6ACTUElement@@0@ZP6AC00@Z@Z
?setKeywordValue@Locale@icu_62@@QEAAXPEBD0AEAW4UErrorCode@@@Z
?setLastUnit@Edits@icu_62@@AEAAXH@Z
?setLength@UnicodeString@icu_62@@AEAAXH@Z
?setLocaleIDs@LocaleBased@icu_62@@QEAAXAEBVLocale@2@0@Z
?setLocaleIDs@LocaleBased@icu_62@@QEAAXPEBD0@Z
?setMaxCapacity@UVector32@icu_62@@QEAAXH@Z
?setMaxCapacity@UVector64@icu_62@@QEAAXH@Z
?setMode@Normalizer@icu_62@@QEAAXW4UNormalizationMode@@@Z
?setOption@Normalizer@icu_62@@QEAAXHC@Z
?setParseError@MessagePattern@icu_62@@AEAAXPEAUUParseError@@H@Z
?setPattern@UnicodeSet@icu_62@@AEAAXAEBVUnicodeString@2@@Z
?setReorderingLimit@ReorderingBuffer@icu_62@@QEAAXPEA_S@Z
?setShortLength@UnicodeString@icu_62@@AEAAXH@Z
?setSize@UVector32@icu_62@@QEAAXH@Z
?setSize@UVector64@icu_62@@QEAAXH@Z
?setSize@UVector@icu_62@@QEAAXHAEAW4UErrorCode@@@Z
?setSource@CanonicalIterator@icu_62@@QEAAXAEBVUnicodeString@2@AEAW4UErrorCode@@@Z
?setText@Normalizer@icu_62@@QEAAXAEBVCharacterIterator@2@AEAW4UErrorCode@@@Z
?setText@Normalizer@icu_62@@QEAAXAEBVUnicodeString@2@AEAW4UErrorCode@@@Z
?setText@Normalizer@icu_62@@QEAAXVConstChar16Ptr@2@HAEAW4UErrorCode@@@Z
?setText@RuleBasedBreakIterator@icu_62@@UEAAXAEBVUnicodeString@2@@Z
?setText@RuleBasedBreakIterator@icu_62@@UEAAXPEAUUText@@AEAW4UErrorCode@@@Z
?setText@StringCharacterIterator@icu_62@@QEAAXAEBVUnicodeString@2@@Z
?setText@UCharCharacterIterator@icu_62@@QEAAXVConstChar16Ptr@2@H@Z
?setTo@UnicodeString@icu_62@@QEAAAEAV12@AEBV12@@Z
?setTo@UnicodeString@icu_62@@QEAAAEAV12@AEBV12@H@Z
?setTo@UnicodeString@icu_62@@QEAAAEAV12@AEBV12@HH@Z
?setTo@UnicodeString@icu_62@@QEAAAEAV12@CVConstChar16Ptr@2@H@Z
?setTo@UnicodeString@icu_62@@QEAAAEAV12@H@Z
?setTo@UnicodeString@icu_62@@QEAAAEAV12@PEA_SHH@Z
?setTo@UnicodeString@icu_62@@QEAAAEAV12@PEB_SH@Z
?setTo@UnicodeString@icu_62@@QEAAAEAV12@_S@Z
?setToBogus@Locale@icu_62@@QEAAXXZ
?setToBogus@UnicodeSet@icu_62@@QEAAXXZ
?setToBogus@UnicodeString@icu_62@@QEAAXXZ
?setToEmpty@UnicodeString@icu_62@@AEAAXXZ
?setToEnd@CharacterIterator@icu_62@@QEAAHXZ
?setToStart@CharacterIterator@icu_62@@QEAAHXZ
?setToUTF8@UnicodeString@icu_62@@AEAAAEAV12@VStringPiece@2@@Z
?setValueComparator@Hashtable@icu_62@@QEAAP6ACTUElement@@0@ZP6AC00@Z@Z
?setValueDeleter@Hashtable@icu_62@@QEAAP6AXPEAX@ZP6AX0@Z@Z
?setZeroLength@UnicodeString@icu_62@@AEAAXXZ
?singleLeadMightHaveNonZeroFCD16@Normalizer2Impl@icu_62@@QEBACH@Z
?size@StringPiece@icu_62@@QEBAHXZ
?size@UVector32@icu_62@@QEBAHXZ
?size@UVector64@icu_62@@QEBAHXZ
?size@UVector@icu_62@@QEBAHXZ
?size@UnicodeSet@icu_62@@UEBAHXZ
?skipDelta@BytesTrie@icu_62@@CAPEBEPEBE@Z
?skipDelta@UCharsTrie@icu_62@@CAPEB_SPEB_S@Z
?skipDouble@MessagePattern@icu_62@@AEAAHH@Z
?skipElementsBySomeUnits@BytesTrieBuilder@icu_62@@EEBAHHHH@Z
?skipElementsBySomeUnits@UCharsTrieBuilder@icu_62@@EEBAHHHH@Z
?skipIdentifier@MessagePattern@icu_62@@AEAAHH@Z
?skipIdentifier@PatternProps@icu_62@@SAPEB_SPEB_SH@Z
?skipNodeValue@UCharsTrie@icu_62@@CAPEB_SPEB_SH@Z
?skipPrevious@ReorderingBuffer@icu_62@@AEAAXXZ
?skipValue@BytesTrie@icu_62@@CAPEBEPEBE@Z
?skipValue@BytesTrie@icu_62@@CAPEBEPEBEH@Z
?skipValue@UCharsTrie@icu_62@@CAPEB_SPEB_S@Z
?skipValue@UCharsTrie@icu_62@@CAPEB_SPEB_SH@Z
?skipWhiteSpace@MessagePattern@icu_62@@AEAAHH@Z
?skipWhiteSpace@PatternProps@icu_62@@SAPEB_SPEB_SH@Z
?skipWhitespace@ICU_Utility@icu_62@@SAHAEBVUnicodeString@2@AEAHC@Z
?snext@StringEnumeration@icu_62@@UEAAPEBVUnicodeString@2@AEAW4UErrorCode@@@Z
?snext@UStringEnumeration@icu_62@@UEAAPEBVUnicodeString@2@AEAW4UErrorCode@@@Z
?sort@UVector@icu_62@@QEAAXP6ACTUElement@@0@ZAEAW4UErrorCode@@@Z
?sortWithUComparator@UVector@icu_62@@QEAAXP6AHPEBX00@Z0AEAW4UErrorCode@@@Z
?sortedInsert@UVector32@icu_62@@QEAAXHAEAW4UErrorCode@@@Z
?sortedInsert@UVector@icu_62@@AEAAXTUElement@@P6AC00@ZAEAW4UErrorCode@@@Z
?sortedInsert@UVector@icu_62@@QEAAXHP6ACTUElement@@0@ZAEAW4UErrorCode@@@Z
?sortedInsert@UVector@icu_62@@QEAAXPEAXP6ACTUElement@@1@ZAEAW4UErrorCode@@@Z
?sorti@UVector@icu_62@@QEAAXAEAW4UErrorCode@@@Z
?sourceIndex@Iterator@Edits@icu_62@@QEBAHXZ
?sourceIndexFromDestinationIndex@Iterator@Edits@icu_62@@QEAAHHAEAW4UErrorCode@@@Z
?span@UnicodeSet@icu_62@@QEBAHAEBVUnicodeString@2@HW4USetSpanCondition@@@Z
?span@UnicodeSet@icu_62@@QEBAHPEB_SHW4USetSpanCondition@@@Z
?spanBack@UnicodeSet@icu_62@@QEBAHAEBVUnicodeString@2@HW4USetSpanCondition@@@Z
?spanBack@UnicodeSet@icu_62@@QEBAHPEB_SHW4USetSpanCondition@@@Z
?spanBackUTF8@UnicodeSet@icu_62@@QEBAHPEBDHW4USetSpanCondition@@@Z
?spanQuickCheckYes@FilteredNormalizer2@icu_62@@UEBAHAEBVUnicodeString@2@AEAW4UErrorCode@@@Z
?spanUTF8@UnicodeSet@icu_62@@QEBAHPEBDHW4USetSpanCondition@@@Z
?startIndex@CharacterIterator@icu_62@@QEBAHXZ
?startIndex@Normalizer@icu_62@@QEBAHXZ
?startsWith@UnicodeString@icu_62@@QEBACAEBV12@@Z
?startsWith@UnicodeString@icu_62@@QEBACAEBV12@HH@Z
?startsWith@UnicodeString@icu_62@@QEBACPEB_SHH@Z
?startsWith@UnicodeString@icu_62@@QEBACVConstChar16Ptr@2@H@Z
?stop@BytesTrie@icu_62@@AEAAXXZ
?stop@UCharsTrie@icu_62@@AEAAXXZ
?substr@StringPiece@icu_62@@QEBA?AV12@HH@Z
?suppressBreakAfter@SimpleFilteredBreakIteratorBuilder@icu_62@@UEAACAEBVUnicodeString@2@AEAW4UErrorCode@@@Z
?swap@UnicodeString@icu_62@@QEAAXAEAV12@@Z
?swap@icu_62@@YAXAEAVUnicodeString@1@0@Z
?swapBuffers@UnicodeSet@icu_62@@AEAAXXZ
?tempSubString@UnicodeString@icu_62@@QEBA?AV12@HH@Z
?tempSubStringBetween@UnicodeString@icu_62@@QEBA?AV12@HH@Z
?toArray@UVector@icu_62@@QEBAPEAPEAXPEAPEAX@Z
?toCategory@PluralMapBase@icu_62@@SA?AW4Category@12@AEBVUnicodeString@2@@Z
?toCategory@PluralMapBase@icu_62@@SA?AW4Category@12@PEBD@Z
?toLower@CaseMap@icu_62@@SAHPEBDIPEB_SHPEA_SHPEAVEdits@2@AEAW4UErrorCode@@@Z
?toLower@UnicodeString@icu_62@@QEAAAEAV12@AEBVLocale@2@@Z
?toLower@UnicodeString@icu_62@@QEAAAEAV12@XZ
?toMatcher@UnicodeFilter@icu_62@@UEBAPEAVUnicodeMatcher@2@XZ
?toMatcher@UnicodeFunctor@icu_62@@UEBAPEAVUnicodeMatcher@2@XZ
?toPattern@UnicodeSet@icu_62@@UEBAAEAVUnicodeString@2@AEAV32@C@Z
?toReplacer@UnicodeFunctor@icu_62@@UEBAPEAVUnicodeReplacer@2@XZ
?toString@Iterator@Edits@icu_62@@QEBAAEAVUnicodeString@3@AEAV43@@Z
?toStringPiece@CharString@icu_62@@QEBA?AVStringPiece@2@XZ
?toTitle@CaseMap@icu_62@@SAHPEBDIPEAVBreakIterator@2@PEB_SHPEA_SHPEAVEdits@2@AEAW4UErrorCode@@@Z
?toTitle@UnicodeString@icu_62@@QEAAAEAV12@PEAVBreakIterator@2@@Z
?toTitle@UnicodeString@icu_62@@QEAAAEAV12@PEAVBreakIterator@2@AEBVLocale@2@@Z
?toTitle@UnicodeString@icu_62@@QEAAAEAV12@PEAVBreakIterator@2@AEBVLocale@2@I@Z
?toUSet@UnicodeSet@icu_62@@QEAAPEAUUSet@@XZ
?toUSet@UnicodeSet@icu_62@@QEBAPEBUUSet@@XZ
?toUTF32@UnicodeString@icu_62@@QEBAHPEAHHAEAW4UErrorCode@@@Z
?toUTF8@UnicodeString@icu_62@@AEBAHHHPEADH@Z
?toUTF8@UnicodeString@icu_62@@QEBAXAEAVByteSink@2@@Z
?toUpper@CaseMap@icu_62@@SAHPEBDIPEB_SHPEA_SHPEAVEdits@2@AEAW4UErrorCode@@@Z
?toUpper@UnicodeString@icu_62@@QEAAAEAV12@AEBVLocale@2@@Z
?toUpper@UnicodeString@icu_62@@QEAAAEAV12@XZ
?transform@BytesDictionaryMatcher@icu_62@@AEBAHH@Z
?trim@UnicodeString@icu_62@@QEAAAEAV12@XZ
?trimWhiteSpace@PatternProps@icu_62@@SAPEB_SPEB_SAEAH@Z
?truncate@CharString@icu_62@@QEAAAEAV12@H@Z
?truncate@UnicodeString@icu_62@@QEAACH@Z
?truncateAndStop@Iterator@BytesTrie@icu_62@@AEAACXZ
?truncateAndStop@Iterator@UCharsTrie@icu_62@@AEAACXZ
?umtx_initImplPostInit@icu_62@@YAXAEAUUInitOnce@1@@Z
?umtx_initImplPreInit@icu_62@@YACAEAUUInitOnce@1@@Z
?unBogus@UnicodeString@icu_62@@AEAAXXZ
?unescape@UnicodeString@icu_62@@QEBA?AV12@XZ
?unescapeAt@UnicodeString@icu_62@@QEBAHAEAH@Z
?unext@StringEnumeration@icu_62@@UEAAPEB_SPEAHAEAW4UErrorCode@@@Z
?unregister@BreakIterator@icu_62@@SACPEBXAEAW4UErrorCode@@@Z
?unregister@ICUService@icu_62@@UEAACPEBXAEAW4UErrorCode@@@Z
?unsuppressBreakAfter@SimpleFilteredBreakIteratorBuilder@icu_62@@UEAACAEBVUnicodeString@2@AEAW4UErrorCode@@@Z
?unusedCount@UnifiedCache@icu_62@@QEBAHXZ
?updateNextIndexes@Iterator@Edits@icu_62@@AEAAXXZ
?updatePreviousIndexes@Iterator@Edits@icu_62@@AEAAXXZ
?updateVisibleIDs@LocaleKeyFactory@icu_62@@UEBAXAEAVHashtable@2@AEAW4UErrorCode@@@Z
?updateVisibleIDs@SimpleFactory@icu_62@@UEBAXAEAVHashtable@2@AEAW4UErrorCode@@@Z
?updateVisibleIDs@SimpleLocaleKeyFactory@icu_62@@UEBAXAEAVHashtable@2@AEAW4UErrorCode@@@Z
?uscript_getSampleUnicodeString_62@@YA?AVUnicodeString@icu_62@@W4UScriptCode@@@Z
?utf8Fold@CaseMap@icu_62@@SAHIPEBDHPEADHPEAVEdits@2@AEAW4UErrorCode@@@Z
?utf8Fold@CaseMap@icu_62@@SAXIVStringPiece@2@AEAVByteSink@2@PEAVEdits@2@AEAW4UErrorCode@@@Z
?utf8ToLower@CaseMap@icu_62@@SAHPEBDI0HPEADHPEAVEdits@2@AEAW4UErrorCode@@@Z
?utf8ToLower@CaseMap@icu_62@@SAXPEBDIVStringPiece@2@AEAVByteSink@2@PEAVEdits@2@AEAW4UErrorCode@@@Z
?utf8ToTitle@CaseMap@icu_62@@SAHPEBDIPEAVBreakIterator@2@0HPEADHPEAVEdits@2@AEAW4UErrorCode@@@Z
?utf8ToTitle@CaseMap@icu_62@@SAXPEBDIPEAVBreakIterator@2@VStringPiece@2@AEAVByteSink@2@PEAVEdits@2@AEAW4UErrorCode@@@Z
?utf8ToUpper@CaseMap@icu_62@@SAHPEBDI0HPEADHPEAVEdits@2@AEAW4UErrorCode@@@Z
?utf8ToUpper@CaseMap@icu_62@@SAXPEBDIVStringPiece@2@AEAVByteSink@2@PEAVEdits@2@AEAW4UErrorCode@@@Z
?validateArgumentName@MessagePattern@icu_62@@SAHAEBVUnicodeString@2@@Z
?validateFallbackLocale@ICULocaleService@icu_62@@IEBAAEBVUnicodeString@2@XZ
?valueResult@BytesTrie@icu_62@@CA?AW4UStringTrieResult@@H@Z
?valueResult@UCharsTrie@icu_62@@CA?AW4UStringTrieResult@@H@Z
?wrapIteratorWithFilter@FilteredBreakIteratorBuilder@icu_62@@QEAAPEAVBreakIterator@2@PEAV32@AEAW4UErrorCode@@@Z
?write@BytesTrieBuilder@icu_62@@AEAAHPEBDH@Z
?write@BytesTrieBuilder@icu_62@@EEAAHH@Z
?write@UCharsTrieBuilder@icu_62@@AEAAHPEB_SH@Z
?write@UCharsTrieBuilder@icu_62@@EEAAHH@Z
?writeBranchSubNode@StringTrieBuilder@icu_62@@IEAAHHHHH@Z
?writeCodePoint@ReorderingBuffer@icu_62@@CAXPEA_SH@Z
?writeDeltaTo@BytesTrieBuilder@icu_62@@EEAAHH@Z
?writeDeltaTo@UCharsTrieBuilder@icu_62@@EEAAHH@Z
?writeElementUnits@BytesTrieBuilder@icu_62@@EEAAHHHH@Z
?writeElementUnits@UCharsTrieBuilder@icu_62@@EEAAHHHH@Z
?writeNode@StringTrieBuilder@icu_62@@IEAAHHHH@Z
?writeValueAndFinal@BytesTrieBuilder@icu_62@@EEAAHHC@Z
?writeValueAndFinal@UCharsTrieBuilder@icu_62@@EEAAHHC@Z
?writeValueAndType@BytesTrieBuilder@icu_62@@EEAAHCHH@Z
?writeValueAndType@UCharsTrieBuilder@icu_62@@EEAAHCHH@Z
TFE_ContextAddFunction
TFE_ContextAddFunctionDef
TFE_ContextAsyncClearError
TFE_ContextAsyncWait
TFE_ContextClearCaches
TFE_ContextDisableRunMetadata
TFE_ContextEnableRunMetadata
TFE_ContextEndStep
TFE_ContextExportRunMetadata
TFE_ContextGetDevicePlacementPolicy
TFE_ContextListDevices
TFE_ContextOptionsSetAsync
TFE_ContextOptionsSetConfig
TFE_ContextOptionsSetDevicePlacementPolicy
TFE_ContextSetAsyncForThread
TFE_ContextSetServerDef
TFE_ContextSetThreadLocalDevicePlacementPolicy
TFE_ContextStartStep
TFE_CreateContextFromSession
TFE_DeleteContext
TFE_DeleteContextOptions
TFE_DeleteOp
TFE_DeleteTensorDebugInfo
TFE_DeleteTensorHandle
TFE_DequeueNamedTensor
TFE_DequeueNamedTensorFromCtx
TFE_DequeueVariantTensor
TFE_EnqueueNamedTensor
TFE_EnqueueNamedTensorFromCtx
TFE_EnqueueVariantTensor
TFE_Execute
TFE_ExecuteOpInNewThread
TFE_ExecuteOpNotificationWaitAndDelete
TFE_NewContext
TFE_NewContextOptions
TFE_NewOp
TFE_NewTensorHandle
TFE_NewTensorHandleFromScalar
TFE_OpAddInput
TFE_OpGetAttrType
TFE_OpGetDevice
TFE_OpNameGetAttrType
TFE_OpSetAttrBool
TFE_OpSetAttrBoolList
TFE_OpSetAttrFloat
TFE_OpSetAttrFloatList
TFE_OpSetAttrFunction
TFE_OpSetAttrFunctionList
TFE_OpSetAttrFunctionName
TFE_OpSetAttrInt
TFE_OpSetAttrIntList
TFE_OpSetAttrShape
TFE_OpSetAttrShapeList
TFE_OpSetAttrString
TFE_OpSetAttrStringList
TFE_OpSetAttrTensor
TFE_OpSetAttrType
TFE_OpSetAttrTypeList
TFE_OpSetDevice
TFE_OpSetXLACompilation
TFE_TensorDebugInfoOnDeviceDim
TFE_TensorDebugInfoOnDeviceNumDims
TFE_TensorHandleBackingDeviceName
TFE_TensorHandleCopySharingTensor
TFE_TensorHandleCopyToDevice
TFE_TensorHandleDataType
TFE_TensorHandleDeviceName
TFE_TensorHandleDim
TFE_TensorHandleNumDims
TFE_TensorHandleNumElements
TFE_TensorHandlePrintDebugString
TFE_TensorHandleResolve
TFE_TensorHandleTensorDebugInfo
TF_AbortWhile
TF_AddControlInput
TF_AddGradients
TF_AddGradientsWithPrefix
TF_AddInput
TF_AddInputList
TF_AllocateTensor
TF_ApiDefMapGet
TF_ApiDefMapPut
TF_AttrBuilderCheckCanRunOnDevice
TF_AttrBuilderSetType
TF_AttrBuilderSetTypeList
TF_CloseDeprecatedSession
TF_CloseSession
TF_ColocateWith
TF_CreateConfig
TF_CreateRunOptions
TF_DataTypeSize
TF_DeleteApiDefMap
TF_DeleteAttrBuilder
TF_DeleteBuffer
TF_DeleteDeprecatedSession
TF_DeleteDeviceList
TF_DeleteFunction
TF_DeleteGraph
TF_DeleteImportGraphDefOptions
TF_DeleteImportGraphDefResults
TF_DeleteLibraryHandle
TF_DeletePRunHandle
TF_DeleteServer
TF_DeleteSession
TF_DeleteSessionOptions
TF_DeleteStatus
TF_DeleteTensor
TF_DeprecatedSessionListDevices
TF_DequeueNamedTensor
TF_DeviceListCount
TF_DeviceListIncarnation
TF_DeviceListMemoryBytes
TF_DeviceListName
TF_DeviceListType
TF_Dim
TF_EnableXLACompilation
TF_EnqueueNamedTensor
TF_ExtendGraph
TF_FinishOperation
TF_FinishWhile
TF_FunctionGetAttrValueProto
TF_FunctionImportFunctionDef
TF_FunctionName
TF_FunctionSetAttrValueProto
TF_FunctionToFunctionDef
TF_GetAllOpList
TF_GetAllRegisteredKernels
TF_GetBuffer
TF_GetCode
TF_GetNumberAttrForOpListInput
TF_GetOpList
TF_GetRegisteredKernelsForOp
TF_GraphCopyFunction
TF_GraphDebugString
TF_GraphGetFunctions
TF_GraphGetOpDef
TF_GraphGetTensorNumDims
TF_GraphGetTensorShape
TF_GraphImportGraphDef
TF_GraphImportGraphDefWithResults
TF_GraphImportGraphDefWithReturnOutputs
TF_GraphNextOperation
TF_GraphNumFunctions
TF_GraphOperationByName
TF_GraphSetTensorShape
TF_GraphToFunction
TF_GraphToGraphDef
TF_GraphVersions
TF_ImportGraphDefOptionsAddControlDependency
TF_ImportGraphDefOptionsAddInputMapping
TF_ImportGraphDefOptionsAddReturnOperation
TF_ImportGraphDefOptionsAddReturnOutput
TF_ImportGraphDefOptionsNumReturnOperations
TF_ImportGraphDefOptionsNumReturnOutputs
TF_ImportGraphDefOptionsRemapControlDependency
TF_ImportGraphDefOptionsSetDefaultDevice
TF_ImportGraphDefOptionsSetPrefix
TF_ImportGraphDefOptionsSetUniquifyNames
TF_ImportGraphDefOptionsSetUniquifyPrefix
TF_ImportGraphDefResultsMissingUnusedInputMappings
TF_ImportGraphDefResultsReturnOperations
TF_ImportGraphDefResultsReturnOutputs
TF_InitMain
TF_LoadLibrary
TF_LoadSessionFromSavedModel
TF_MakeFakeIteratorGetNextWithDatasets
TF_MakeFileBasedIteratorGetNextWithDatasets
TF_MakeInternalErrorStatus
TF_Message
TF_NewApiDefMap
TF_NewAttrBuilder
TF_NewBuffer
TF_NewBufferFromString
TF_NewDeprecatedSession
TF_NewGraph
TF_NewImportGraphDefOptions
TF_NewOperation
TF_NewServer
TF_NewSession
TF_NewSessionOptions
TF_NewStatus
TF_NewTensor
TF_NewWhile
TF_NumDims
TF_OpIsStateful
TF_OperationDevice
TF_OperationGetAttrBool
TF_OperationGetAttrBoolList
TF_OperationGetAttrFloat
TF_OperationGetAttrFloatList
TF_OperationGetAttrInt
TF_OperationGetAttrIntList
TF_OperationGetAttrMetadata
TF_OperationGetAttrShape
TF_OperationGetAttrShapeList
TF_OperationGetAttrString
TF_OperationGetAttrStringList
TF_OperationGetAttrTensor
TF_OperationGetAttrTensorList
TF_OperationGetAttrTensorShapeProto
TF_OperationGetAttrTensorShapeProtoList
TF_OperationGetAttrType
TF_OperationGetAttrTypeList
TF_OperationGetAttrValueProto
TF_OperationGetControlInputs
TF_OperationGetControlOutputs
TF_OperationInput
TF_OperationInputListLength
TF_OperationInputType
TF_OperationName
TF_OperationNumControlInputs
TF_OperationNumControlOutputs
TF_OperationNumInputs
TF_OperationNumOutputs
TF_OperationOpType
TF_OperationOutputConsumers
TF_OperationOutputListLength
TF_OperationOutputNumConsumers
TF_OperationOutputType
TF_OperationToNodeDef
TF_PRun
TF_PRunSetup
TF_PickUnusedPortOrDie
TF_Reset
TF_Run
TF_ServerJoin
TF_ServerStart
TF_ServerStop
TF_ServerTarget
TF_SessionListDevices
TF_SessionPRun
TF_SessionPRunSetup
TF_SessionRun
TF_SetAttrBool
TF_SetAttrBoolList
TF_SetAttrFloat
TF_SetAttrFloatList
TF_SetAttrFuncName
TF_SetAttrInt
TF_SetAttrIntList
TF_SetAttrShape
TF_SetAttrShapeList
TF_SetAttrString
TF_SetAttrStringList
TF_SetAttrTensor
TF_SetAttrTensorList
TF_SetAttrTensorShapeProto
TF_SetAttrTensorShapeProtoList
TF_SetAttrType
TF_SetAttrTypeList
TF_SetAttrValueProto
TF_SetConfig
TF_SetDevice
TF_SetStatus
TF_SetTarget
TF_StringDecode
TF_StringEncode
TF_StringEncodedSize
TF_TensorByteSize
TF_TensorData
TF_TensorMaybeMove
TF_TensorType
TF_TryEvaluateConstant
TF_Version
T_CString_int64ToString_62
T_CString_integerToString_62
T_CString_stringToInteger_62
T_CString_toLowerCase_62
T_CString_toUpperCase_62
UCNV_FROM_U_CALLBACK_ESCAPE_62
UCNV_FROM_U_CALLBACK_SKIP_62
UCNV_FROM_U_CALLBACK_STOP_62
UCNV_FROM_U_CALLBACK_SUBSTITUTE_62
UCNV_TO_U_CALLBACK_ESCAPE_62
UCNV_TO_U_CALLBACK_SKIP_62
UCNV_TO_U_CALLBACK_STOP_62
UCNV_TO_U_CALLBACK_SUBSTITUTE_62
icudt62_dat
locale_getKeywordsStart_62
res_countArrayItems_62
res_getAlias_62
res_getArrayItem_62
res_getBinary_62
res_getIntVector_62
res_getPublicType_62
res_getResource_62
res_getString_62
res_getTableItemByIndex_62
res_getTableItemByKey_62
res_read_62
u_UCharsToChars_62
u_austrcpy_62
u_austrncpy_62
u_caseInsensitivePrefixMatch_62
u_catclose_62
u_catgets_62
u_catopen_62
u_charAge_62
u_charDigitValue_62
u_charDirection_62
u_charFromName_62
u_charMirror_62
u_charName_62
u_charType_62
u_charsToUChars_62
u_cleanup_62
u_countChar32_62
u_digit_62
u_enumCharNames_62
u_enumCharTypes_62
u_errorName_62
u_flushDefaultConverter_62
u_foldCase_62
u_forDigit_62
u_getBidiPairedBracket_62
u_getCombiningClass_62
u_getDataDirectory_62
u_getDataVersion_62
u_getDefaultConverter_62
u_getFC_NFKC_Closure_62
u_getISOComment_62
u_getIntPropertyMaxValue_62
u_getIntPropertyMinValue_62
u_getIntPropertyValue_62
u_getNumericValue_62
u_getPropertyEnum_62
u_getPropertyName_62
u_getPropertyValueEnum_62
u_getPropertyValueName_62
u_getTimeZoneFilesDirectory_62
u_getUnicodeVersion_62
u_getVersion_62
u_hasBinaryProperty_62
u_init_62
u_isIDIgnorable_62
u_isIDPart_62
u_isIDStart_62
u_isISOControl_62
u_isJavaIDPart_62
u_isJavaIDStart_62
u_isJavaSpaceChar_62
u_isMirrored_62
u_isUAlphabetic_62
u_isULowercase_62
u_isUUppercase_62
u_isUWhiteSpace_62
u_isWhitespace_62
u_isalnum_62
u_isalpha_62
u_isbase_62
u_isblank_62
u_iscntrl_62
u_isdefined_62
u_isdigit_62
u_isgraph_62
u_islower_62
u_isprint_62
u_ispunct_62
u_isspace_62
u_istitle_62
u_isupper_62
u_isxdigit_62
u_memcasecmp_62
u_memchr32_62
u_memchr_62
u_memcmpCodePointOrder_62
u_memcmp_62
u_memcpy_62
u_memmove_62
u_memrchr32_62
u_memrchr_62
u_memset_62
u_releaseDefaultConverter_62
u_setAtomicIncDecFunctions_62
u_setDataDirectory_62
u_setMemoryFunctions_62
u_setMutexFunctions_62
u_setTimeZoneFilesDirectory_62
u_shapeArabic_62
u_strCaseCompare_62
u_strCompareIter_62
u_strCompare_62
u_strFindFirst_62
u_strFindLast_62
u_strFoldCase_62
u_strFromJavaModifiedUTF8WithSub_62
u_strFromUTF32WithSub_62
u_strFromUTF32_62
u_strFromUTF8Lenient_62
u_strFromUTF8WithSub_62
u_strFromUTF8_62
u_strFromWCS_62
u_strHasMoreChar32Than_62
u_strToJavaModifiedUTF8_62
u_strToLower_62
u_strToTitle_62
u_strToUTF32WithSub_62
u_strToUTF32_62
u_strToUTF8WithSub_62
u_strToUTF8_62
u_strToUpper_62
u_strToWCS_62
u_strcasecmp_62
u_strcat_62
u_strchr32_62
u_strchr_62
u_strcmpCodePointOrder_62
u_strcmp_62
u_strcpy_62
u_strcspn_62
u_strlen_62
u_strncasecmp_62
u_strncat_62
u_strncmpCodePointOrder_62
u_strncmp_62
u_strncpy_62
u_strpbrk_62
u_strrchr32_62
u_strrchr_62
u_strrstr_62
u_strspn_62
u_strstr_62
u_strtok_r_62
u_terminateChars_62
u_terminateUChar32s_62
u_terminateUChars_62
u_terminateWChars_62
u_tolower_62
u_totitle_62
u_toupper_62
u_uastrcpy_62
u_uastrncpy_62
u_unescapeAt_62
u_unescape_62
u_versionFromString_62
u_versionFromUString_62
u_versionToString_62
ubidi_close_62
ubidi_countParagraphs_62
ubidi_countRuns_62
ubidi_getBaseDirection_62
ubidi_getClassCallback_62
ubidi_getClass_62
ubidi_getCustomizedClass_62
ubidi_getDirection_62
ubidi_getLength_62
ubidi_getLevelAt_62
ubidi_getLevels_62
ubidi_getLogicalIndex_62
ubidi_getLogicalMap_62
ubidi_getLogicalRun_62
ubidi_getParaLevel_62
ubidi_getParagraphByIndex_62
ubidi_getParagraph_62
ubidi_getProcessedLength_62
ubidi_getReorderingMode_62
ubidi_getReorderingOptions_62
ubidi_getResultLength_62
ubidi_getText_62
ubidi_getVisualIndex_62
ubidi_getVisualMap_62
ubidi_getVisualRun_62
ubidi_invertMap_62
ubidi_isInverse_62
ubidi_isOrderParagraphsLTR_62
ubidi_openSized_62
ubidi_open_62
ubidi_orderParagraphsLTR_62
ubidi_reorderLogical_62
ubidi_reorderVisual_62
ubidi_setClassCallback_62
ubidi_setContext_62
ubidi_setInverse_62
ubidi_setLine_62
ubidi_setPara_62
ubidi_setReorderingMode_62
ubidi_setReorderingOptions_62
ubidi_writeReordered_62
ubidi_writeReverse_62
ubiditransform_close_62
ubiditransform_open_62
ubiditransform_transform_62
ublock_getCode_62
ubrk_close_62
ubrk_countAvailable_62
ubrk_current_62
ubrk_first_62
ubrk_following_62
ubrk_getAvailable_62
ubrk_getBinaryRules_62
ubrk_getLocaleByType_62
ubrk_getRuleStatusVec_62
ubrk_getRuleStatus_62
ubrk_isBoundary_62
ubrk_last_62
ubrk_next_62
ubrk_openBinaryRules_62
ubrk_openRules_62
ubrk_open_62
ubrk_preceding_62
ubrk_previous_62
ubrk_refreshUText_62
ubrk_safeClone_62
ubrk_setText_62
ubrk_setUText_62
ubrk_swap_62
ucache_compareKeys_62
ucache_deleteKey_62
ucache_hashKeys_62
ucase_fold_62
ucase_getTypeOrIgnorable_62
ucase_getType_62
ucase_isCaseSensitive_62
ucase_isSoftDotted_62
ucase_toFullFolding_62
ucase_toFullLower_62
ucase_toFullTitle_62
ucase_toFullUpper_62
ucase_tolower_62
ucase_totitle_62
ucase_toupper_62
ucasemap_close_62
ucasemap_getBreakIterator_62
ucasemap_getLocale_62
ucasemap_getOptions_62
ucasemap_open_62
ucasemap_setBreakIterator_62
ucasemap_setLocale_62
ucasemap_setOptions_62
ucasemap_toTitle_62
ucasemap_utf8FoldCase_62
ucasemap_utf8ToLower_62
ucasemap_utf8ToTitle_62
ucasemap_utf8ToUpper_62
uchar_swapNames_62
ucln_cleanupOne_62
ucln_registerCleanup_62
ucnv_cbFromUWriteBytes_62
ucnv_cbFromUWriteSub_62
ucnv_cbFromUWriteUChars_62
ucnv_cbToUWriteSub_62
ucnv_cbToUWriteUChars_62
ucnv_close_62
ucnv_compareNames_62
ucnv_convertEx_62
ucnv_convert_62
ucnv_countAliases_62
ucnv_countAvailable_62
ucnv_countStandards_62
ucnv_createConverter_62
ucnv_detectUnicodeSignature_62
ucnv_enableCleanup_62
ucnv_fixFileSeparator_62
ucnv_flushCache_62
ucnv_fromAlgorithmic_62
ucnv_fromUChars_62
ucnv_fromUCountPending_62
ucnv_fromUnicode_62
ucnv_getAlias_62
ucnv_getAliases_62
ucnv_getAvailableName_62
ucnv_getCCSID_62
ucnv_getCanonicalName_62
ucnv_getDefaultName_62
ucnv_getDisplayName_62
ucnv_getFromUCallBack_62
ucnv_getInvalidChars_62
ucnv_getInvalidUChars_62
ucnv_getMaxCharSize_62
ucnv_getMinCharSize_62
ucnv_getName_62
ucnv_getNextUChar_62
ucnv_getPlatform_62
ucnv_getStandardName_62
ucnv_getStandard_62
ucnv_getStarters_62
ucnv_getSubstChars_62
ucnv_getToUCallBack_62
ucnv_getType_62
ucnv_getUnicodeSet_62
ucnv_io_countKnownConverters_62
ucnv_io_getConverterName_62
ucnv_io_stripASCIIForCompare_62
ucnv_io_stripEBCDICForCompare_62
ucnv_isAmbiguous_62
ucnv_isFixedWidth_62
ucnv_load_62
ucnv_openAllNames_62
ucnv_openCCSID_62
ucnv_openPackage_62
ucnv_openStandardNames_62
ucnv_openU_62
ucnv_open_62
ucnv_resetFromUnicode_62
ucnv_resetToUnicode_62
ucnv_reset_62
ucnv_safeClone_62
ucnv_setDefaultName_62
ucnv_setFallback_62
ucnv_setFromUCallBack_62
ucnv_setSubstChars_62
ucnv_setSubstString_62
ucnv_setToUCallBack_62
ucnv_swapAliases_62
ucnv_swap_62
ucnv_toAlgorithmic_62
ucnv_toUChars_62
ucnv_toUCountPending_62
ucnv_toUnicode_62
ucnv_unload_62
ucnv_usesFallback_62
ucnvsel_close_62
ucnvsel_openFromSerialized_62
ucnvsel_open_62
ucnvsel_selectForString_62
ucnvsel_selectForUTF8_62
ucnvsel_serialize_62
ucol_looksLikeCollationBinary_62
ucol_swapInverseUCA_62
ucol_swap_62
ucurr_countCurrencies_62
ucurr_forLocaleAndDate_62
ucurr_forLocale_62
ucurr_getDefaultFractionDigitsForUsage_62
ucurr_getDefaultFractionDigits_62
ucurr_getKeywordValuesForLocale_62
ucurr_getName_62
ucurr_getNumericCode_62
ucurr_getPluralName_62
ucurr_getRoundingIncrementForUsage_62
ucurr_getRoundingIncrement_62
ucurr_isAvailable_62
ucurr_openISOCurrencies_62
ucurr_register_62
ucurr_unregister_62
udata_closeSwapper_62
udata_close_62
udata_getInfo_62
udata_getLength_62
udata_getMemory_62
udata_getRawMemory_62
udata_openChoice_62
udata_openSwapperForInputData_62
udata_openSwapper_62
udata_open_62
udata_printError_62
udata_readInt16_62
udata_readInt32_62
udata_setAppData_62
udata_setCommonData_62
udata_setFileAccess_62
udata_swapDataHeader_62
udata_swapInvStringBlock_62
udict_swap_62
uenum_close_62
uenum_count_62
uenum_nextDefault_62
uenum_next_62
uenum_openCharStringsEnumeration_62
uenum_openFromStringEnumeration_62
uenum_openUCharStringsEnumeration_62
uenum_reset_62
uenum_unextDefault_62
uenum_unext_62
uhash_close_62
uhash_compareCaselessUnicodeString_62
uhash_compareChars_62
uhash_compareIChars_62
uhash_compareLong_62
uhash_compareUChars_62
uhash_compareUnicodeString_62
uhash_count_62
uhash_deleteHashtable_62
uhash_equals_62
uhash_find_62
uhash_get_62
uhash_geti_62
uhash_hashCaselessUnicodeString_62
uhash_hashChars_62
uhash_hashIChars_62
uhash_hashLong_62
uhash_hashUChars_62
uhash_hashUnicodeString_62
uhash_iget_62
uhash_igeti_62
uhash_initSize_62
uhash_init_62
uhash_iput_62
uhash_iputi_62
uhash_iremove_62
uhash_iremovei_62
uhash_nextElement_62
uhash_openSize_62
uhash_open_62
uhash_put_62
uhash_puti_62
uhash_removeAll_62
uhash_removeElement_62
uhash_remove_62
uhash_removei_62
uhash_setKeyComparator_62
uhash_setKeyDeleter_62
uhash_setKeyHasher_62
uhash_setResizePolicy_62
uhash_setValueComparator_62
uhash_setValueDeleter_62
uidna_IDNToASCII_62
uidna_IDNToUnicode_62
uidna_close_62
uidna_compare_62
uidna_labelToASCII_62
uidna_labelToASCII_UTF8_62
uidna_labelToUnicodeUTF8_62
uidna_labelToUnicode_62
uidna_nameToASCII_62
uidna_nameToASCII_UTF8_62
uidna_nameToUnicodeUTF8_62
uidna_nameToUnicode_62
uidna_openUTS46_62
uidna_toASCII_62
uidna_toUnicode_62
uiter_current32_62
uiter_getState_62
uiter_next32_62
uiter_previous32_62
uiter_setCharacterIterator_62
uiter_setReplaceable_62
uiter_setState_62
uiter_setString_62
uiter_setUTF16BE_62
uiter_setUTF8_62
uldn_close_62
uldn_getContext_62
uldn_getDialectHandling_62
uldn_getLocale_62
uldn_keyDisplayName_62
uldn_keyValueDisplayName_62
uldn_languageDisplayName_62
uldn_localeDisplayName_62
uldn_openForContext_62
uldn_open_62
uldn_regionDisplayName_62
uldn_scriptCodeDisplayName_62
uldn_scriptDisplayName_62
uldn_variantDisplayName_62
ulist_addItemBeginList_62
ulist_addItemEndList_62
ulist_close_keyword_values_iterator_62
ulist_containsString_62
ulist_count_keyword_values_62
ulist_createEmptyList_62
ulist_deleteList_62
ulist_getListFromEnum_62
ulist_getListSize_62
ulist_getNext_62
ulist_next_keyword_value_62
ulist_removeString_62
ulist_resetList_62
ulist_reset_keyword_values_iterator_62
ulistfmt_close_62
ulistfmt_format_62
ulistfmt_open_62
uloc_acceptLanguageFromHTTP_62
uloc_acceptLanguage_62
uloc_addLikelySubtags_62
uloc_canonicalize_62
uloc_countAvailable_62
uloc_forLanguageTag_62
uloc_getAvailable_62
uloc_getBaseName_62
uloc_getCharacterOrientation_62
uloc_getCountry_62
uloc_getDefault_62
uloc_getDisplayCountry_62
uloc_getDisplayKeywordValue_62
uloc_getDisplayKeyword_62
uloc_getDisplayLanguage_62
uloc_getDisplayName_62
uloc_getDisplayScriptInContext_62
uloc_getDisplayScript_62
uloc_getDisplayVariant_62
uloc_getISO3Country_62
uloc_getISO3Language_62
uloc_getISOCountries_62
uloc_getISOLanguages_62
uloc_getKeywordValue_62
uloc_getLCID_62
uloc_getLanguage_62
uloc_getLineOrientation_62
uloc_getLocaleForLCID_62
uloc_getName_62
uloc_getParent_62
uloc_getScript_62
uloc_getTableStringWithFallback_62
uloc_getVariant_62
uloc_isRightToLeft_62
uloc_minimizeSubtags_62
uloc_openKeywordList_62
uloc_openKeywords_62
uloc_setDefault_62
uloc_setKeywordValue_62
uloc_toLanguageTag_62
uloc_toLegacyKey_62
uloc_toLegacyType_62
uloc_toUnicodeLocaleKey_62
uloc_toUnicodeLocaleType_62
ulocimp_getRegionForSupplementalData_62
umtx_condBroadcast_62
umtx_condSignal_62
umtx_condWait_62
umtx_lock_62
umtx_unlock_62
unorm2_append_62
unorm2_close_62
unorm2_composePair_62
unorm2_getCombiningClass_62
unorm2_getDecomposition_62
unorm2_getInstance_62
unorm2_getNFCInstance_62
unorm2_getNFDInstance_62
unorm2_getNFKCCasefoldInstance_62
unorm2_getNFKCInstance_62
unorm2_getNFKDInstance_62
unorm2_getRawDecomposition_62
unorm2_hasBoundaryAfter_62
unorm2_hasBoundaryBefore_62
unorm2_isInert_62
unorm2_isNormalized_62
unorm2_normalizeSecondAndAppend_62
unorm2_normalize_62
unorm2_openFiltered_62
unorm2_quickCheck_62
unorm2_spanQuickCheckYes_62
unorm2_swap_62
unorm_compare_62
unorm_concatenate_62
unorm_isNormalizedWithOptions_62
unorm_isNormalized_62
unorm_next_62
unorm_normalize_62
unorm_previous_62
unorm_quickCheckWithOptions_62
unorm_quickCheck_62
uprv_add32_overflow_62
uprv_aestrncpy_62
uprv_asciitolower_62
uprv_calloc_62
uprv_ceil_62
uprv_compareASCIIPropertyNames_62
uprv_compareEBCDICPropertyNames_62
uprv_compareInvEbcdicAsAscii_62
uprv_convertToLCIDPlatform_62
uprv_convertToLCID_62
uprv_convertToPosix_62
uprv_deleteUObject_62
uprv_dl_close_62
uprv_dl_open_62
uprv_dlsym_func_62
uprv_eastrncpy_62
uprv_ebcdicFromAscii_62
uprv_ebcdicToLowercaseAscii_62
uprv_ebcdictolower_62
uprv_fabs_62
uprv_floor_62
uprv_fmax_62
uprv_fmin_62
uprv_fmod_62
uprv_free_62
uprv_getCharNameCharacters_62
uprv_getDefaultCodepage_62
uprv_getDefaultLocaleID_62
uprv_getICUData_conversion
uprv_getInfinity_62
uprv_getMaxCharNameLength_62
uprv_getNaN_62
uprv_getRawUTCtime_62
uprv_getStaticCurrencyName_62
uprv_getUTCtime_62
uprv_int32Comparator_62
uprv_isASCIILetter_62
uprv_isInfinite_62
uprv_isInvariantString_62
uprv_isInvariantUString_62
uprv_isInvariantUnicodeString
uprv_isNaN_62
uprv_isNegativeInfinity_62
uprv_isPositiveInfinity_62
uprv_itou_62
uprv_log_62
uprv_malloc_62
uprv_maxMantissa_62
uprv_max_62
uprv_maximumPtr_62
uprv_min_62
uprv_modf_62
uprv_mul32_overflow_62
uprv_parseCurrency_62
uprv_pathIsAbsolute_62
uprv_pow10_62
uprv_pow_62
uprv_realloc_62
uprv_round_62
uprv_sortArray_62
uprv_stableBinarySearch_62
uprv_strdup_62
uprv_stricmp_62
uprv_strndup_62
uprv_strnicmp_62
uprv_syntaxError_62
uprv_timezone_62
uprv_toupper_62
uprv_trunc_62
uprv_tzname_62
uprv_tzname_clear_cache_62
uprv_tzset_62
uprv_uint16Comparator_62
uprv_uint32Comparator_62
upvec_cloneArray_62
upvec_close_62
upvec_compactToUTrie2Handler_62
upvec_compactToUTrie2WithRowIndexes_62
upvec_compact_62
upvec_getArray_62
upvec_getRow_62
upvec_getValue_62
upvec_open_62
upvec_setValue_62
ures_close_62
ures_countArrayItems_62
ures_findResource_62
ures_findSubResource_62
ures_getAllItemsWithFallback_62
ures_getBinary_62
ures_getByIndex_62
ures_getByKeyWithFallback_62
ures_getByKey_62
ures_getFunctionalEquivalent_62
ures_getIntVector_62
ures_getInt_62
ures_getKey_62
ures_getKeywordValues_62
ures_getLocaleByType_62
ures_getLocaleInternal_62
ures_getLocale_62
ures_getNextResource_62
ures_getNextString_62
ures_getSize_62
ures_getStringByIndex_62
ures_getStringByKeyWithFallback_62
ures_getStringByKey_62
ures_getString_62
ures_getType_62
ures_getUInt_62
ures_getUTF8StringByIndex_62
ures_getUTF8StringByKey_62
ures_getUTF8String_62
ures_getVersionByKey_62
ures_getVersionNumberInternal_62
ures_getVersionNumber_62
ures_getVersion_62
ures_hasNext_62
ures_initStackObject_62
ures_openAvailableLocales_62
ures_openDirect_62
ures_openFillIn_62
ures_openNoDefault_62
ures_openU_62
ures_open_62
ures_resetIterator_62
ures_swap_62
uscript_breaksBetweenLetters_62
uscript_closeRun_62
uscript_getCode_62
uscript_getName_62
uscript_getSampleString_62
uscript_getScriptExtensions_62
uscript_getScript_62
uscript_getShortName_62
uscript_getUsage_62
uscript_hasScript_62
uscript_isCased_62
uscript_isRightToLeft_62
uscript_nextRun_62
uscript_openRun_62
uscript_resetRun_62
uscript_setRunText_62
uset_addAllCodePoints_62
uset_addAll_62
uset_addRange_62
uset_addString_62
uset_add_62
uset_applyIntPropertyValue_62
uset_applyPattern_62
uset_applyPropertyAlias_62
uset_charAt_62
uset_clear_62
uset_cloneAsThawed_62
uset_clone_62
uset_closeOver_62
uset_close_62
uset_compact_62
uset_complementAll_62
uset_complement_62
uset_containsAllCodePoints_62
uset_containsAll_62
uset_containsNone_62
uset_containsRange_62
uset_containsSome_62
uset_containsString_62
uset_contains_62
uset_equals_62
uset_freeze_62
uset_getItemCount_62
uset_getItem_62
uset_getSerializedRangeCount_62
uset_getSerializedRange_62
uset_getSerializedSet_62
uset_indexOf_62
uset_isEmpty_62
uset_isFrozen_62
uset_openEmpty_62
uset_openPatternOptions_62
uset_openPattern_62
uset_open_62
uset_removeAllStrings_62
uset_removeAll_62
uset_removeRange_62
uset_removeString_62
uset_remove_62
uset_resemblesPattern_62
uset_retainAll_62
uset_retain_62
uset_serialize_62
uset_serializedContains_62
uset_setSerializedToOne_62
uset_set_62
uset_size_62
uset_spanBackUTF8_62
uset_spanBack_62
uset_spanUTF8_62
uset_span_62
uset_toPattern_62
usprep_close_62
usprep_openByType_62
usprep_open_62
usprep_prepare_62
usprep_swap_62
ustr_hashCharsN_62
ustr_hashICharsN_62
ustr_hashUCharsN_62
utext_char32At_62
utext_clone_62
utext_close_62
utext_copy_62
utext_current32_62
utext_equals_62
utext_extract_62
utext_freeze_62
utext_getNativeIndex_62
utext_getPreviousNativeIndex_62
utext_hasMetaData_62
utext_isLengthExpensive_62
utext_isWritable_62
utext_moveIndex32_62
utext_nativeLength_62
utext_next32From_62
utext_next32_62
utext_openCharacterIterator_62
utext_openConstUnicodeString_62
utext_openReplaceable_62
utext_openUChars_62
utext_openUTF8_62
utext_openUnicodeString_62
utext_previous32From_62
utext_previous32_62
utext_replace_62
utext_setNativeIndex_62
utext_setup_62
utf8_appendCharSafeBody_62
utf8_back1SafeBody_62
utf8_countTrailBytes_62
utf8_nextCharSafeBody_62
utf8_prevCharSafeBody_62
utrace_data_62
utrace_entry_62
utrace_exit_62
utrace_format_62
utrace_functionName_62
utrace_getFunctions_62
utrace_getLevel_62
utrace_setFunctions_62
utrace_setLevel_62
utrace_vformat_62
utrie2_cloneAsThawed_62
utrie2_clone_62
utrie2_close_62
utrie2_enumForLeadSurrogate_62
utrie2_enum_62
utrie2_freeze_62
utrie2_fromUTrie_62
utrie2_get32FromLeadSurrogateCodeUnit_62
utrie2_get32_62
utrie2_getVersion_62
utrie2_internalU8NextIndex_62
utrie2_internalU8PrevIndex_62
utrie2_isFrozen_62
utrie2_openDummy_62
utrie2_openFromSerialized_62
utrie2_open_62
utrie2_serialize_62
utrie2_set32ForLeadSurrogateCodeUnit_62
utrie2_set32_62
utrie2_setRange32_62
utrie2_swapAnyVersion_62
utrie2_swap_62
utrie_clone_62
utrie_close_62
utrie_defaultGetFoldingOffset_62
utrie_enum_62
utrie_get32_62
utrie_getData_62
utrie_open_62
utrie_serialize_62
utrie_set32_62
utrie_setRange32_62
utrie_swap_62
utrie_unserializeDummy_62
utrie_unserialize_62
